
Smart_Home_Project.elf:     file format elf32-avr

Sections:
Idx Name          Size      VMA       LMA       File off  Algn
  0 .text         00004482  00000000  00000000  00000094  2**1
                  CONTENTS, ALLOC, LOAD, READONLY, CODE
  1 .data         000003ce  00800060  00004482  00004516  2**0
                  CONTENTS, ALLOC, LOAD, DATA
  2 .bss          00000003  0080042e  0080042e  000048e4  2**0
                  ALLOC
  3 .stab         00005a00  00000000  00000000  000048e4  2**2
                  CONTENTS, READONLY, DEBUGGING
  4 .stabstr      00001e38  00000000  00000000  0000a2e4  2**0
                  CONTENTS, READONLY, DEBUGGING
  5 .debug_aranges 00000140  00000000  00000000  0000c11c  2**0
                  CONTENTS, READONLY, DEBUGGING
  6 .debug_pubnames 00000170  00000000  00000000  0000c25c  2**0
                  CONTENTS, READONLY, DEBUGGING
  7 .debug_info   00001c49  00000000  00000000  0000c3cc  2**0
                  CONTENTS, READONLY, DEBUGGING
  8 .debug_abbrev 00000eeb  00000000  00000000  0000e015  2**0
                  CONTENTS, READONLY, DEBUGGING
  9 .debug_line   00000dad  00000000  00000000  0000ef00  2**0
                  CONTENTS, READONLY, DEBUGGING
 10 .debug_frame  00000160  00000000  00000000  0000fcb0  2**2
                  CONTENTS, READONLY, DEBUGGING
 11 .debug_str    0000028d  00000000  00000000  0000fe10  2**0
                  CONTENTS, READONLY, DEBUGGING
 12 .debug_loc    000007ce  00000000  00000000  0001009d  2**0
                  CONTENTS, READONLY, DEBUGGING
 13 .debug_ranges 00000050  00000000  00000000  0001086b  2**0
                  CONTENTS, READONLY, DEBUGGING

Disassembly of section .text:

00000000 <__vectors>:
       0:	0c 94 2a 00 	jmp	0x54	; 0x54 <__ctors_end>
       4:	0c 94 47 00 	jmp	0x8e	; 0x8e <__bad_interrupt>
       8:	0c 94 47 00 	jmp	0x8e	; 0x8e <__bad_interrupt>
       c:	0c 94 47 00 	jmp	0x8e	; 0x8e <__bad_interrupt>
      10:	0c 94 47 00 	jmp	0x8e	; 0x8e <__bad_interrupt>
      14:	0c 94 47 00 	jmp	0x8e	; 0x8e <__bad_interrupt>
      18:	0c 94 47 00 	jmp	0x8e	; 0x8e <__bad_interrupt>
      1c:	0c 94 47 00 	jmp	0x8e	; 0x8e <__bad_interrupt>
      20:	0c 94 47 00 	jmp	0x8e	; 0x8e <__bad_interrupt>
      24:	0c 94 47 00 	jmp	0x8e	; 0x8e <__bad_interrupt>
      28:	0c 94 47 00 	jmp	0x8e	; 0x8e <__bad_interrupt>
      2c:	0c 94 47 00 	jmp	0x8e	; 0x8e <__bad_interrupt>
      30:	0c 94 47 00 	jmp	0x8e	; 0x8e <__bad_interrupt>
      34:	0c 94 55 0c 	jmp	0x18aa	; 0x18aa <__vector_13>
      38:	0c 94 47 00 	jmp	0x8e	; 0x8e <__bad_interrupt>
      3c:	0c 94 47 00 	jmp	0x8e	; 0x8e <__bad_interrupt>
      40:	0c 94 47 00 	jmp	0x8e	; 0x8e <__bad_interrupt>
      44:	0c 94 47 00 	jmp	0x8e	; 0x8e <__bad_interrupt>
      48:	0c 94 47 00 	jmp	0x8e	; 0x8e <__bad_interrupt>
      4c:	0c 94 47 00 	jmp	0x8e	; 0x8e <__bad_interrupt>
      50:	0c 94 47 00 	jmp	0x8e	; 0x8e <__bad_interrupt>

00000054 <__ctors_end>:
      54:	11 24       	eor	r1, r1
      56:	1f be       	out	0x3f, r1	; 63
      58:	cf e5       	ldi	r28, 0x5F	; 95
      5a:	d8 e0       	ldi	r29, 0x08	; 8
      5c:	de bf       	out	0x3e, r29	; 62
      5e:	cd bf       	out	0x3d, r28	; 61

00000060 <__do_copy_data>:
      60:	14 e0       	ldi	r17, 0x04	; 4
      62:	a0 e6       	ldi	r26, 0x60	; 96
      64:	b0 e0       	ldi	r27, 0x00	; 0
      66:	e2 e8       	ldi	r30, 0x82	; 130
      68:	f4 e4       	ldi	r31, 0x44	; 68
      6a:	02 c0       	rjmp	.+4      	; 0x70 <.do_copy_data_start>

0000006c <.do_copy_data_loop>:
      6c:	05 90       	lpm	r0, Z+
      6e:	0d 92       	st	X+, r0

00000070 <.do_copy_data_start>:
      70:	ae 32       	cpi	r26, 0x2E	; 46
      72:	b1 07       	cpc	r27, r17
      74:	d9 f7       	brne	.-10     	; 0x6c <.do_copy_data_loop>

00000076 <__do_clear_bss>:
      76:	14 e0       	ldi	r17, 0x04	; 4
      78:	ae e2       	ldi	r26, 0x2E	; 46
      7a:	b4 e0       	ldi	r27, 0x04	; 4
      7c:	01 c0       	rjmp	.+2      	; 0x80 <.do_clear_bss_start>

0000007e <.do_clear_bss_loop>:
      7e:	1d 92       	st	X+, r1

00000080 <.do_clear_bss_start>:
      80:	a1 33       	cpi	r26, 0x31	; 49
      82:	b1 07       	cpc	r27, r17
      84:	e1 f7       	brne	.-8      	; 0x7e <.do_clear_bss_loop>
      86:	0e 94 06 1e 	call	0x3c0c	; 0x3c0c <main>
      8a:	0c 94 3f 22 	jmp	0x447e	; 0x447e <_exit>

0000008e <__bad_interrupt>:
      8e:	0c 94 00 00 	jmp	0	; 0x0 <__vectors>

00000092 <__fixunssfsi>:
      92:	ef 92       	push	r14
      94:	ff 92       	push	r15
      96:	0f 93       	push	r16
      98:	1f 93       	push	r17
      9a:	7b 01       	movw	r14, r22
      9c:	8c 01       	movw	r16, r24
      9e:	20 e0       	ldi	r18, 0x00	; 0
      a0:	30 e0       	ldi	r19, 0x00	; 0
      a2:	40 e0       	ldi	r20, 0x00	; 0
      a4:	5f e4       	ldi	r21, 0x4F	; 79
      a6:	0e 94 49 03 	call	0x692	; 0x692 <__gesf2>
      aa:	88 23       	and	r24, r24
      ac:	8c f0       	brlt	.+34     	; 0xd0 <__fixunssfsi+0x3e>
      ae:	c8 01       	movw	r24, r16
      b0:	b7 01       	movw	r22, r14
      b2:	20 e0       	ldi	r18, 0x00	; 0
      b4:	30 e0       	ldi	r19, 0x00	; 0
      b6:	40 e0       	ldi	r20, 0x00	; 0
      b8:	5f e4       	ldi	r21, 0x4F	; 79
      ba:	0e 94 c1 01 	call	0x382	; 0x382 <__subsf3>
      be:	0e 94 a9 03 	call	0x752	; 0x752 <__fixsfsi>
      c2:	9b 01       	movw	r18, r22
      c4:	ac 01       	movw	r20, r24
      c6:	20 50       	subi	r18, 0x00	; 0
      c8:	30 40       	sbci	r19, 0x00	; 0
      ca:	40 40       	sbci	r20, 0x00	; 0
      cc:	50 48       	sbci	r21, 0x80	; 128
      ce:	06 c0       	rjmp	.+12     	; 0xdc <__fixunssfsi+0x4a>
      d0:	c8 01       	movw	r24, r16
      d2:	b7 01       	movw	r22, r14
      d4:	0e 94 a9 03 	call	0x752	; 0x752 <__fixsfsi>
      d8:	9b 01       	movw	r18, r22
      da:	ac 01       	movw	r20, r24
      dc:	b9 01       	movw	r22, r18
      de:	ca 01       	movw	r24, r20
      e0:	1f 91       	pop	r17
      e2:	0f 91       	pop	r16
      e4:	ff 90       	pop	r15
      e6:	ef 90       	pop	r14
      e8:	08 95       	ret

000000ea <_fpadd_parts>:
      ea:	a0 e0       	ldi	r26, 0x00	; 0
      ec:	b0 e0       	ldi	r27, 0x00	; 0
      ee:	eb e7       	ldi	r30, 0x7B	; 123
      f0:	f0 e0       	ldi	r31, 0x00	; 0
      f2:	0c 94 ff 21 	jmp	0x43fe	; 0x43fe <__prologue_saves__>
      f6:	dc 01       	movw	r26, r24
      f8:	2b 01       	movw	r4, r22
      fa:	fa 01       	movw	r30, r20
      fc:	9c 91       	ld	r25, X
      fe:	92 30       	cpi	r25, 0x02	; 2
     100:	08 f4       	brcc	.+2      	; 0x104 <_fpadd_parts+0x1a>
     102:	39 c1       	rjmp	.+626    	; 0x376 <_fpadd_parts+0x28c>
     104:	eb 01       	movw	r28, r22
     106:	88 81       	ld	r24, Y
     108:	82 30       	cpi	r24, 0x02	; 2
     10a:	08 f4       	brcc	.+2      	; 0x10e <_fpadd_parts+0x24>
     10c:	33 c1       	rjmp	.+614    	; 0x374 <_fpadd_parts+0x28a>
     10e:	94 30       	cpi	r25, 0x04	; 4
     110:	69 f4       	brne	.+26     	; 0x12c <_fpadd_parts+0x42>
     112:	84 30       	cpi	r24, 0x04	; 4
     114:	09 f0       	breq	.+2      	; 0x118 <_fpadd_parts+0x2e>
     116:	2f c1       	rjmp	.+606    	; 0x376 <_fpadd_parts+0x28c>
     118:	11 96       	adiw	r26, 0x01	; 1
     11a:	9c 91       	ld	r25, X
     11c:	11 97       	sbiw	r26, 0x01	; 1
     11e:	89 81       	ldd	r24, Y+1	; 0x01
     120:	98 17       	cp	r25, r24
     122:	09 f4       	brne	.+2      	; 0x126 <_fpadd_parts+0x3c>
     124:	28 c1       	rjmp	.+592    	; 0x376 <_fpadd_parts+0x28c>
     126:	ae e0       	ldi	r26, 0x0E	; 14
     128:	b4 e0       	ldi	r27, 0x04	; 4
     12a:	25 c1       	rjmp	.+586    	; 0x376 <_fpadd_parts+0x28c>
     12c:	84 30       	cpi	r24, 0x04	; 4
     12e:	09 f4       	brne	.+2      	; 0x132 <_fpadd_parts+0x48>
     130:	21 c1       	rjmp	.+578    	; 0x374 <_fpadd_parts+0x28a>
     132:	82 30       	cpi	r24, 0x02	; 2
     134:	a9 f4       	brne	.+42     	; 0x160 <_fpadd_parts+0x76>
     136:	92 30       	cpi	r25, 0x02	; 2
     138:	09 f0       	breq	.+2      	; 0x13c <_fpadd_parts+0x52>
     13a:	1d c1       	rjmp	.+570    	; 0x376 <_fpadd_parts+0x28c>
     13c:	9a 01       	movw	r18, r20
     13e:	ad 01       	movw	r20, r26
     140:	88 e0       	ldi	r24, 0x08	; 8
     142:	ea 01       	movw	r28, r20
     144:	09 90       	ld	r0, Y+
     146:	ae 01       	movw	r20, r28
     148:	e9 01       	movw	r28, r18
     14a:	09 92       	st	Y+, r0
     14c:	9e 01       	movw	r18, r28
     14e:	81 50       	subi	r24, 0x01	; 1
     150:	c1 f7       	brne	.-16     	; 0x142 <_fpadd_parts+0x58>
     152:	e2 01       	movw	r28, r4
     154:	89 81       	ldd	r24, Y+1	; 0x01
     156:	11 96       	adiw	r26, 0x01	; 1
     158:	9c 91       	ld	r25, X
     15a:	89 23       	and	r24, r25
     15c:	81 83       	std	Z+1, r24	; 0x01
     15e:	08 c1       	rjmp	.+528    	; 0x370 <_fpadd_parts+0x286>
     160:	92 30       	cpi	r25, 0x02	; 2
     162:	09 f4       	brne	.+2      	; 0x166 <_fpadd_parts+0x7c>
     164:	07 c1       	rjmp	.+526    	; 0x374 <_fpadd_parts+0x28a>
     166:	12 96       	adiw	r26, 0x02	; 2
     168:	2d 90       	ld	r2, X+
     16a:	3c 90       	ld	r3, X
     16c:	13 97       	sbiw	r26, 0x03	; 3
     16e:	eb 01       	movw	r28, r22
     170:	8a 81       	ldd	r24, Y+2	; 0x02
     172:	9b 81       	ldd	r25, Y+3	; 0x03
     174:	14 96       	adiw	r26, 0x04	; 4
     176:	ad 90       	ld	r10, X+
     178:	bd 90       	ld	r11, X+
     17a:	cd 90       	ld	r12, X+
     17c:	dc 90       	ld	r13, X
     17e:	17 97       	sbiw	r26, 0x07	; 7
     180:	ec 80       	ldd	r14, Y+4	; 0x04
     182:	fd 80       	ldd	r15, Y+5	; 0x05
     184:	0e 81       	ldd	r16, Y+6	; 0x06
     186:	1f 81       	ldd	r17, Y+7	; 0x07
     188:	91 01       	movw	r18, r2
     18a:	28 1b       	sub	r18, r24
     18c:	39 0b       	sbc	r19, r25
     18e:	b9 01       	movw	r22, r18
     190:	37 ff       	sbrs	r19, 7
     192:	04 c0       	rjmp	.+8      	; 0x19c <_fpadd_parts+0xb2>
     194:	66 27       	eor	r22, r22
     196:	77 27       	eor	r23, r23
     198:	62 1b       	sub	r22, r18
     19a:	73 0b       	sbc	r23, r19
     19c:	60 32       	cpi	r22, 0x20	; 32
     19e:	71 05       	cpc	r23, r1
     1a0:	0c f0       	brlt	.+2      	; 0x1a4 <_fpadd_parts+0xba>
     1a2:	61 c0       	rjmp	.+194    	; 0x266 <_fpadd_parts+0x17c>
     1a4:	12 16       	cp	r1, r18
     1a6:	13 06       	cpc	r1, r19
     1a8:	6c f5       	brge	.+90     	; 0x204 <_fpadd_parts+0x11a>
     1aa:	37 01       	movw	r6, r14
     1ac:	48 01       	movw	r8, r16
     1ae:	06 2e       	mov	r0, r22
     1b0:	04 c0       	rjmp	.+8      	; 0x1ba <_fpadd_parts+0xd0>
     1b2:	96 94       	lsr	r9
     1b4:	87 94       	ror	r8
     1b6:	77 94       	ror	r7
     1b8:	67 94       	ror	r6
     1ba:	0a 94       	dec	r0
     1bc:	d2 f7       	brpl	.-12     	; 0x1b2 <_fpadd_parts+0xc8>
     1be:	21 e0       	ldi	r18, 0x01	; 1
     1c0:	30 e0       	ldi	r19, 0x00	; 0
     1c2:	40 e0       	ldi	r20, 0x00	; 0
     1c4:	50 e0       	ldi	r21, 0x00	; 0
     1c6:	04 c0       	rjmp	.+8      	; 0x1d0 <_fpadd_parts+0xe6>
     1c8:	22 0f       	add	r18, r18
     1ca:	33 1f       	adc	r19, r19
     1cc:	44 1f       	adc	r20, r20
     1ce:	55 1f       	adc	r21, r21
     1d0:	6a 95       	dec	r22
     1d2:	d2 f7       	brpl	.-12     	; 0x1c8 <_fpadd_parts+0xde>
     1d4:	21 50       	subi	r18, 0x01	; 1
     1d6:	30 40       	sbci	r19, 0x00	; 0
     1d8:	40 40       	sbci	r20, 0x00	; 0
     1da:	50 40       	sbci	r21, 0x00	; 0
     1dc:	2e 21       	and	r18, r14
     1de:	3f 21       	and	r19, r15
     1e0:	40 23       	and	r20, r16
     1e2:	51 23       	and	r21, r17
     1e4:	21 15       	cp	r18, r1
     1e6:	31 05       	cpc	r19, r1
     1e8:	41 05       	cpc	r20, r1
     1ea:	51 05       	cpc	r21, r1
     1ec:	21 f0       	breq	.+8      	; 0x1f6 <_fpadd_parts+0x10c>
     1ee:	21 e0       	ldi	r18, 0x01	; 1
     1f0:	30 e0       	ldi	r19, 0x00	; 0
     1f2:	40 e0       	ldi	r20, 0x00	; 0
     1f4:	50 e0       	ldi	r21, 0x00	; 0
     1f6:	79 01       	movw	r14, r18
     1f8:	8a 01       	movw	r16, r20
     1fa:	e6 28       	or	r14, r6
     1fc:	f7 28       	or	r15, r7
     1fe:	08 29       	or	r16, r8
     200:	19 29       	or	r17, r9
     202:	3c c0       	rjmp	.+120    	; 0x27c <_fpadd_parts+0x192>
     204:	23 2b       	or	r18, r19
     206:	d1 f1       	breq	.+116    	; 0x27c <_fpadd_parts+0x192>
     208:	26 0e       	add	r2, r22
     20a:	37 1e       	adc	r3, r23
     20c:	35 01       	movw	r6, r10
     20e:	46 01       	movw	r8, r12
     210:	06 2e       	mov	r0, r22
     212:	04 c0       	rjmp	.+8      	; 0x21c <_fpadd_parts+0x132>
     214:	96 94       	lsr	r9
     216:	87 94       	ror	r8
     218:	77 94       	ror	r7
     21a:	67 94       	ror	r6
     21c:	0a 94       	dec	r0
     21e:	d2 f7       	brpl	.-12     	; 0x214 <_fpadd_parts+0x12a>
     220:	21 e0       	ldi	r18, 0x01	; 1
     222:	30 e0       	ldi	r19, 0x00	; 0
     224:	40 e0       	ldi	r20, 0x00	; 0
     226:	50 e0       	ldi	r21, 0x00	; 0
     228:	04 c0       	rjmp	.+8      	; 0x232 <_fpadd_parts+0x148>
     22a:	22 0f       	add	r18, r18
     22c:	33 1f       	adc	r19, r19
     22e:	44 1f       	adc	r20, r20
     230:	55 1f       	adc	r21, r21
     232:	6a 95       	dec	r22
     234:	d2 f7       	brpl	.-12     	; 0x22a <_fpadd_parts+0x140>
     236:	21 50       	subi	r18, 0x01	; 1
     238:	30 40       	sbci	r19, 0x00	; 0
     23a:	40 40       	sbci	r20, 0x00	; 0
     23c:	50 40       	sbci	r21, 0x00	; 0
     23e:	2a 21       	and	r18, r10
     240:	3b 21       	and	r19, r11
     242:	4c 21       	and	r20, r12
     244:	5d 21       	and	r21, r13
     246:	21 15       	cp	r18, r1
     248:	31 05       	cpc	r19, r1
     24a:	41 05       	cpc	r20, r1
     24c:	51 05       	cpc	r21, r1
     24e:	21 f0       	breq	.+8      	; 0x258 <_fpadd_parts+0x16e>
     250:	21 e0       	ldi	r18, 0x01	; 1
     252:	30 e0       	ldi	r19, 0x00	; 0
     254:	40 e0       	ldi	r20, 0x00	; 0
     256:	50 e0       	ldi	r21, 0x00	; 0
     258:	59 01       	movw	r10, r18
     25a:	6a 01       	movw	r12, r20
     25c:	a6 28       	or	r10, r6
     25e:	b7 28       	or	r11, r7
     260:	c8 28       	or	r12, r8
     262:	d9 28       	or	r13, r9
     264:	0b c0       	rjmp	.+22     	; 0x27c <_fpadd_parts+0x192>
     266:	82 15       	cp	r24, r2
     268:	93 05       	cpc	r25, r3
     26a:	2c f0       	brlt	.+10     	; 0x276 <_fpadd_parts+0x18c>
     26c:	1c 01       	movw	r2, r24
     26e:	aa 24       	eor	r10, r10
     270:	bb 24       	eor	r11, r11
     272:	65 01       	movw	r12, r10
     274:	03 c0       	rjmp	.+6      	; 0x27c <_fpadd_parts+0x192>
     276:	ee 24       	eor	r14, r14
     278:	ff 24       	eor	r15, r15
     27a:	87 01       	movw	r16, r14
     27c:	11 96       	adiw	r26, 0x01	; 1
     27e:	9c 91       	ld	r25, X
     280:	d2 01       	movw	r26, r4
     282:	11 96       	adiw	r26, 0x01	; 1
     284:	8c 91       	ld	r24, X
     286:	98 17       	cp	r25, r24
     288:	09 f4       	brne	.+2      	; 0x28c <_fpadd_parts+0x1a2>
     28a:	45 c0       	rjmp	.+138    	; 0x316 <_fpadd_parts+0x22c>
     28c:	99 23       	and	r25, r25
     28e:	39 f0       	breq	.+14     	; 0x29e <_fpadd_parts+0x1b4>
     290:	a8 01       	movw	r20, r16
     292:	97 01       	movw	r18, r14
     294:	2a 19       	sub	r18, r10
     296:	3b 09       	sbc	r19, r11
     298:	4c 09       	sbc	r20, r12
     29a:	5d 09       	sbc	r21, r13
     29c:	06 c0       	rjmp	.+12     	; 0x2aa <_fpadd_parts+0x1c0>
     29e:	a6 01       	movw	r20, r12
     2a0:	95 01       	movw	r18, r10
     2a2:	2e 19       	sub	r18, r14
     2a4:	3f 09       	sbc	r19, r15
     2a6:	40 0b       	sbc	r20, r16
     2a8:	51 0b       	sbc	r21, r17
     2aa:	57 fd       	sbrc	r21, 7
     2ac:	08 c0       	rjmp	.+16     	; 0x2be <_fpadd_parts+0x1d4>
     2ae:	11 82       	std	Z+1, r1	; 0x01
     2b0:	33 82       	std	Z+3, r3	; 0x03
     2b2:	22 82       	std	Z+2, r2	; 0x02
     2b4:	24 83       	std	Z+4, r18	; 0x04
     2b6:	35 83       	std	Z+5, r19	; 0x05
     2b8:	46 83       	std	Z+6, r20	; 0x06
     2ba:	57 83       	std	Z+7, r21	; 0x07
     2bc:	1d c0       	rjmp	.+58     	; 0x2f8 <_fpadd_parts+0x20e>
     2be:	81 e0       	ldi	r24, 0x01	; 1
     2c0:	81 83       	std	Z+1, r24	; 0x01
     2c2:	33 82       	std	Z+3, r3	; 0x03
     2c4:	22 82       	std	Z+2, r2	; 0x02
     2c6:	88 27       	eor	r24, r24
     2c8:	99 27       	eor	r25, r25
     2ca:	dc 01       	movw	r26, r24
     2cc:	82 1b       	sub	r24, r18
     2ce:	93 0b       	sbc	r25, r19
     2d0:	a4 0b       	sbc	r26, r20
     2d2:	b5 0b       	sbc	r27, r21
     2d4:	84 83       	std	Z+4, r24	; 0x04
     2d6:	95 83       	std	Z+5, r25	; 0x05
     2d8:	a6 83       	std	Z+6, r26	; 0x06
     2da:	b7 83       	std	Z+7, r27	; 0x07
     2dc:	0d c0       	rjmp	.+26     	; 0x2f8 <_fpadd_parts+0x20e>
     2de:	22 0f       	add	r18, r18
     2e0:	33 1f       	adc	r19, r19
     2e2:	44 1f       	adc	r20, r20
     2e4:	55 1f       	adc	r21, r21
     2e6:	24 83       	std	Z+4, r18	; 0x04
     2e8:	35 83       	std	Z+5, r19	; 0x05
     2ea:	46 83       	std	Z+6, r20	; 0x06
     2ec:	57 83       	std	Z+7, r21	; 0x07
     2ee:	82 81       	ldd	r24, Z+2	; 0x02
     2f0:	93 81       	ldd	r25, Z+3	; 0x03
     2f2:	01 97       	sbiw	r24, 0x01	; 1
     2f4:	93 83       	std	Z+3, r25	; 0x03
     2f6:	82 83       	std	Z+2, r24	; 0x02
     2f8:	24 81       	ldd	r18, Z+4	; 0x04
     2fa:	35 81       	ldd	r19, Z+5	; 0x05
     2fc:	46 81       	ldd	r20, Z+6	; 0x06
     2fe:	57 81       	ldd	r21, Z+7	; 0x07
     300:	da 01       	movw	r26, r20
     302:	c9 01       	movw	r24, r18
     304:	01 97       	sbiw	r24, 0x01	; 1
     306:	a1 09       	sbc	r26, r1
     308:	b1 09       	sbc	r27, r1
     30a:	8f 5f       	subi	r24, 0xFF	; 255
     30c:	9f 4f       	sbci	r25, 0xFF	; 255
     30e:	af 4f       	sbci	r26, 0xFF	; 255
     310:	bf 43       	sbci	r27, 0x3F	; 63
     312:	28 f3       	brcs	.-54     	; 0x2de <_fpadd_parts+0x1f4>
     314:	0b c0       	rjmp	.+22     	; 0x32c <_fpadd_parts+0x242>
     316:	91 83       	std	Z+1, r25	; 0x01
     318:	33 82       	std	Z+3, r3	; 0x03
     31a:	22 82       	std	Z+2, r2	; 0x02
     31c:	ea 0c       	add	r14, r10
     31e:	fb 1c       	adc	r15, r11
     320:	0c 1d       	adc	r16, r12
     322:	1d 1d       	adc	r17, r13
     324:	e4 82       	std	Z+4, r14	; 0x04
     326:	f5 82       	std	Z+5, r15	; 0x05
     328:	06 83       	std	Z+6, r16	; 0x06
     32a:	17 83       	std	Z+7, r17	; 0x07
     32c:	83 e0       	ldi	r24, 0x03	; 3
     32e:	80 83       	st	Z, r24
     330:	24 81       	ldd	r18, Z+4	; 0x04
     332:	35 81       	ldd	r19, Z+5	; 0x05
     334:	46 81       	ldd	r20, Z+6	; 0x06
     336:	57 81       	ldd	r21, Z+7	; 0x07
     338:	57 ff       	sbrs	r21, 7
     33a:	1a c0       	rjmp	.+52     	; 0x370 <_fpadd_parts+0x286>
     33c:	c9 01       	movw	r24, r18
     33e:	aa 27       	eor	r26, r26
     340:	97 fd       	sbrc	r25, 7
     342:	a0 95       	com	r26
     344:	ba 2f       	mov	r27, r26
     346:	81 70       	andi	r24, 0x01	; 1
     348:	90 70       	andi	r25, 0x00	; 0
     34a:	a0 70       	andi	r26, 0x00	; 0
     34c:	b0 70       	andi	r27, 0x00	; 0
     34e:	56 95       	lsr	r21
     350:	47 95       	ror	r20
     352:	37 95       	ror	r19
     354:	27 95       	ror	r18
     356:	82 2b       	or	r24, r18
     358:	93 2b       	or	r25, r19
     35a:	a4 2b       	or	r26, r20
     35c:	b5 2b       	or	r27, r21
     35e:	84 83       	std	Z+4, r24	; 0x04
     360:	95 83       	std	Z+5, r25	; 0x05
     362:	a6 83       	std	Z+6, r26	; 0x06
     364:	b7 83       	std	Z+7, r27	; 0x07
     366:	82 81       	ldd	r24, Z+2	; 0x02
     368:	93 81       	ldd	r25, Z+3	; 0x03
     36a:	01 96       	adiw	r24, 0x01	; 1
     36c:	93 83       	std	Z+3, r25	; 0x03
     36e:	82 83       	std	Z+2, r24	; 0x02
     370:	df 01       	movw	r26, r30
     372:	01 c0       	rjmp	.+2      	; 0x376 <_fpadd_parts+0x28c>
     374:	d2 01       	movw	r26, r4
     376:	cd 01       	movw	r24, r26
     378:	cd b7       	in	r28, 0x3d	; 61
     37a:	de b7       	in	r29, 0x3e	; 62
     37c:	e2 e1       	ldi	r30, 0x12	; 18
     37e:	0c 94 1b 22 	jmp	0x4436	; 0x4436 <__epilogue_restores__>

00000382 <__subsf3>:
     382:	a0 e2       	ldi	r26, 0x20	; 32
     384:	b0 e0       	ldi	r27, 0x00	; 0
     386:	e7 ec       	ldi	r30, 0xC7	; 199
     388:	f1 e0       	ldi	r31, 0x01	; 1
     38a:	0c 94 0b 22 	jmp	0x4416	; 0x4416 <__prologue_saves__+0x18>
     38e:	69 83       	std	Y+1, r22	; 0x01
     390:	7a 83       	std	Y+2, r23	; 0x02
     392:	8b 83       	std	Y+3, r24	; 0x03
     394:	9c 83       	std	Y+4, r25	; 0x04
     396:	2d 83       	std	Y+5, r18	; 0x05
     398:	3e 83       	std	Y+6, r19	; 0x06
     39a:	4f 83       	std	Y+7, r20	; 0x07
     39c:	58 87       	std	Y+8, r21	; 0x08
     39e:	e9 e0       	ldi	r30, 0x09	; 9
     3a0:	ee 2e       	mov	r14, r30
     3a2:	f1 2c       	mov	r15, r1
     3a4:	ec 0e       	add	r14, r28
     3a6:	fd 1e       	adc	r15, r29
     3a8:	ce 01       	movw	r24, r28
     3aa:	01 96       	adiw	r24, 0x01	; 1
     3ac:	b7 01       	movw	r22, r14
     3ae:	0e 94 d2 04 	call	0x9a4	; 0x9a4 <__unpack_f>
     3b2:	8e 01       	movw	r16, r28
     3b4:	0f 5e       	subi	r16, 0xEF	; 239
     3b6:	1f 4f       	sbci	r17, 0xFF	; 255
     3b8:	ce 01       	movw	r24, r28
     3ba:	05 96       	adiw	r24, 0x05	; 5
     3bc:	b8 01       	movw	r22, r16
     3be:	0e 94 d2 04 	call	0x9a4	; 0x9a4 <__unpack_f>
     3c2:	8a 89       	ldd	r24, Y+18	; 0x12
     3c4:	91 e0       	ldi	r25, 0x01	; 1
     3c6:	89 27       	eor	r24, r25
     3c8:	8a 8b       	std	Y+18, r24	; 0x12
     3ca:	c7 01       	movw	r24, r14
     3cc:	b8 01       	movw	r22, r16
     3ce:	ae 01       	movw	r20, r28
     3d0:	47 5e       	subi	r20, 0xE7	; 231
     3d2:	5f 4f       	sbci	r21, 0xFF	; 255
     3d4:	0e 94 75 00 	call	0xea	; 0xea <_fpadd_parts>
     3d8:	0e 94 fd 03 	call	0x7fa	; 0x7fa <__pack_f>
     3dc:	a0 96       	adiw	r28, 0x20	; 32
     3de:	e6 e0       	ldi	r30, 0x06	; 6
     3e0:	0c 94 27 22 	jmp	0x444e	; 0x444e <__epilogue_restores__+0x18>

000003e4 <__addsf3>:
     3e4:	a0 e2       	ldi	r26, 0x20	; 32
     3e6:	b0 e0       	ldi	r27, 0x00	; 0
     3e8:	e8 ef       	ldi	r30, 0xF8	; 248
     3ea:	f1 e0       	ldi	r31, 0x01	; 1
     3ec:	0c 94 0b 22 	jmp	0x4416	; 0x4416 <__prologue_saves__+0x18>
     3f0:	69 83       	std	Y+1, r22	; 0x01
     3f2:	7a 83       	std	Y+2, r23	; 0x02
     3f4:	8b 83       	std	Y+3, r24	; 0x03
     3f6:	9c 83       	std	Y+4, r25	; 0x04
     3f8:	2d 83       	std	Y+5, r18	; 0x05
     3fa:	3e 83       	std	Y+6, r19	; 0x06
     3fc:	4f 83       	std	Y+7, r20	; 0x07
     3fe:	58 87       	std	Y+8, r21	; 0x08
     400:	f9 e0       	ldi	r31, 0x09	; 9
     402:	ef 2e       	mov	r14, r31
     404:	f1 2c       	mov	r15, r1
     406:	ec 0e       	add	r14, r28
     408:	fd 1e       	adc	r15, r29
     40a:	ce 01       	movw	r24, r28
     40c:	01 96       	adiw	r24, 0x01	; 1
     40e:	b7 01       	movw	r22, r14
     410:	0e 94 d2 04 	call	0x9a4	; 0x9a4 <__unpack_f>
     414:	8e 01       	movw	r16, r28
     416:	0f 5e       	subi	r16, 0xEF	; 239
     418:	1f 4f       	sbci	r17, 0xFF	; 255
     41a:	ce 01       	movw	r24, r28
     41c:	05 96       	adiw	r24, 0x05	; 5
     41e:	b8 01       	movw	r22, r16
     420:	0e 94 d2 04 	call	0x9a4	; 0x9a4 <__unpack_f>
     424:	c7 01       	movw	r24, r14
     426:	b8 01       	movw	r22, r16
     428:	ae 01       	movw	r20, r28
     42a:	47 5e       	subi	r20, 0xE7	; 231
     42c:	5f 4f       	sbci	r21, 0xFF	; 255
     42e:	0e 94 75 00 	call	0xea	; 0xea <_fpadd_parts>
     432:	0e 94 fd 03 	call	0x7fa	; 0x7fa <__pack_f>
     436:	a0 96       	adiw	r28, 0x20	; 32
     438:	e6 e0       	ldi	r30, 0x06	; 6
     43a:	0c 94 27 22 	jmp	0x444e	; 0x444e <__epilogue_restores__+0x18>

0000043e <__mulsf3>:
     43e:	a0 e2       	ldi	r26, 0x20	; 32
     440:	b0 e0       	ldi	r27, 0x00	; 0
     442:	e5 e2       	ldi	r30, 0x25	; 37
     444:	f2 e0       	ldi	r31, 0x02	; 2
     446:	0c 94 ff 21 	jmp	0x43fe	; 0x43fe <__prologue_saves__>
     44a:	69 83       	std	Y+1, r22	; 0x01
     44c:	7a 83       	std	Y+2, r23	; 0x02
     44e:	8b 83       	std	Y+3, r24	; 0x03
     450:	9c 83       	std	Y+4, r25	; 0x04
     452:	2d 83       	std	Y+5, r18	; 0x05
     454:	3e 83       	std	Y+6, r19	; 0x06
     456:	4f 83       	std	Y+7, r20	; 0x07
     458:	58 87       	std	Y+8, r21	; 0x08
     45a:	ce 01       	movw	r24, r28
     45c:	01 96       	adiw	r24, 0x01	; 1
     45e:	be 01       	movw	r22, r28
     460:	67 5f       	subi	r22, 0xF7	; 247
     462:	7f 4f       	sbci	r23, 0xFF	; 255
     464:	0e 94 d2 04 	call	0x9a4	; 0x9a4 <__unpack_f>
     468:	ce 01       	movw	r24, r28
     46a:	05 96       	adiw	r24, 0x05	; 5
     46c:	be 01       	movw	r22, r28
     46e:	6f 5e       	subi	r22, 0xEF	; 239
     470:	7f 4f       	sbci	r23, 0xFF	; 255
     472:	0e 94 d2 04 	call	0x9a4	; 0x9a4 <__unpack_f>
     476:	99 85       	ldd	r25, Y+9	; 0x09
     478:	92 30       	cpi	r25, 0x02	; 2
     47a:	88 f0       	brcs	.+34     	; 0x49e <__mulsf3+0x60>
     47c:	89 89       	ldd	r24, Y+17	; 0x11
     47e:	82 30       	cpi	r24, 0x02	; 2
     480:	c8 f0       	brcs	.+50     	; 0x4b4 <__mulsf3+0x76>
     482:	94 30       	cpi	r25, 0x04	; 4
     484:	19 f4       	brne	.+6      	; 0x48c <__mulsf3+0x4e>
     486:	82 30       	cpi	r24, 0x02	; 2
     488:	51 f4       	brne	.+20     	; 0x49e <__mulsf3+0x60>
     48a:	04 c0       	rjmp	.+8      	; 0x494 <__mulsf3+0x56>
     48c:	84 30       	cpi	r24, 0x04	; 4
     48e:	29 f4       	brne	.+10     	; 0x49a <__mulsf3+0x5c>
     490:	92 30       	cpi	r25, 0x02	; 2
     492:	81 f4       	brne	.+32     	; 0x4b4 <__mulsf3+0x76>
     494:	8e e0       	ldi	r24, 0x0E	; 14
     496:	94 e0       	ldi	r25, 0x04	; 4
     498:	c6 c0       	rjmp	.+396    	; 0x626 <__mulsf3+0x1e8>
     49a:	92 30       	cpi	r25, 0x02	; 2
     49c:	49 f4       	brne	.+18     	; 0x4b0 <__mulsf3+0x72>
     49e:	20 e0       	ldi	r18, 0x00	; 0
     4a0:	9a 85       	ldd	r25, Y+10	; 0x0a
     4a2:	8a 89       	ldd	r24, Y+18	; 0x12
     4a4:	98 13       	cpse	r25, r24
     4a6:	21 e0       	ldi	r18, 0x01	; 1
     4a8:	2a 87       	std	Y+10, r18	; 0x0a
     4aa:	ce 01       	movw	r24, r28
     4ac:	09 96       	adiw	r24, 0x09	; 9
     4ae:	bb c0       	rjmp	.+374    	; 0x626 <__mulsf3+0x1e8>
     4b0:	82 30       	cpi	r24, 0x02	; 2
     4b2:	49 f4       	brne	.+18     	; 0x4c6 <__mulsf3+0x88>
     4b4:	20 e0       	ldi	r18, 0x00	; 0
     4b6:	9a 85       	ldd	r25, Y+10	; 0x0a
     4b8:	8a 89       	ldd	r24, Y+18	; 0x12
     4ba:	98 13       	cpse	r25, r24
     4bc:	21 e0       	ldi	r18, 0x01	; 1
     4be:	2a 8b       	std	Y+18, r18	; 0x12
     4c0:	ce 01       	movw	r24, r28
     4c2:	41 96       	adiw	r24, 0x11	; 17
     4c4:	b0 c0       	rjmp	.+352    	; 0x626 <__mulsf3+0x1e8>
     4c6:	2d 84       	ldd	r2, Y+13	; 0x0d
     4c8:	3e 84       	ldd	r3, Y+14	; 0x0e
     4ca:	4f 84       	ldd	r4, Y+15	; 0x0f
     4cc:	58 88       	ldd	r5, Y+16	; 0x10
     4ce:	6d 88       	ldd	r6, Y+21	; 0x15
     4d0:	7e 88       	ldd	r7, Y+22	; 0x16
     4d2:	8f 88       	ldd	r8, Y+23	; 0x17
     4d4:	98 8c       	ldd	r9, Y+24	; 0x18
     4d6:	ee 24       	eor	r14, r14
     4d8:	ff 24       	eor	r15, r15
     4da:	87 01       	movw	r16, r14
     4dc:	aa 24       	eor	r10, r10
     4de:	bb 24       	eor	r11, r11
     4e0:	65 01       	movw	r12, r10
     4e2:	40 e0       	ldi	r20, 0x00	; 0
     4e4:	50 e0       	ldi	r21, 0x00	; 0
     4e6:	60 e0       	ldi	r22, 0x00	; 0
     4e8:	70 e0       	ldi	r23, 0x00	; 0
     4ea:	e0 e0       	ldi	r30, 0x00	; 0
     4ec:	f0 e0       	ldi	r31, 0x00	; 0
     4ee:	c1 01       	movw	r24, r2
     4f0:	81 70       	andi	r24, 0x01	; 1
     4f2:	90 70       	andi	r25, 0x00	; 0
     4f4:	89 2b       	or	r24, r25
     4f6:	e9 f0       	breq	.+58     	; 0x532 <__mulsf3+0xf4>
     4f8:	e6 0c       	add	r14, r6
     4fa:	f7 1c       	adc	r15, r7
     4fc:	08 1d       	adc	r16, r8
     4fe:	19 1d       	adc	r17, r9
     500:	9a 01       	movw	r18, r20
     502:	ab 01       	movw	r20, r22
     504:	2a 0d       	add	r18, r10
     506:	3b 1d       	adc	r19, r11
     508:	4c 1d       	adc	r20, r12
     50a:	5d 1d       	adc	r21, r13
     50c:	80 e0       	ldi	r24, 0x00	; 0
     50e:	90 e0       	ldi	r25, 0x00	; 0
     510:	a0 e0       	ldi	r26, 0x00	; 0
     512:	b0 e0       	ldi	r27, 0x00	; 0
     514:	e6 14       	cp	r14, r6
     516:	f7 04       	cpc	r15, r7
     518:	08 05       	cpc	r16, r8
     51a:	19 05       	cpc	r17, r9
     51c:	20 f4       	brcc	.+8      	; 0x526 <__mulsf3+0xe8>
     51e:	81 e0       	ldi	r24, 0x01	; 1
     520:	90 e0       	ldi	r25, 0x00	; 0
     522:	a0 e0       	ldi	r26, 0x00	; 0
     524:	b0 e0       	ldi	r27, 0x00	; 0
     526:	ba 01       	movw	r22, r20
     528:	a9 01       	movw	r20, r18
     52a:	48 0f       	add	r20, r24
     52c:	59 1f       	adc	r21, r25
     52e:	6a 1f       	adc	r22, r26
     530:	7b 1f       	adc	r23, r27
     532:	aa 0c       	add	r10, r10
     534:	bb 1c       	adc	r11, r11
     536:	cc 1c       	adc	r12, r12
     538:	dd 1c       	adc	r13, r13
     53a:	97 fe       	sbrs	r9, 7
     53c:	08 c0       	rjmp	.+16     	; 0x54e <__mulsf3+0x110>
     53e:	81 e0       	ldi	r24, 0x01	; 1
     540:	90 e0       	ldi	r25, 0x00	; 0
     542:	a0 e0       	ldi	r26, 0x00	; 0
     544:	b0 e0       	ldi	r27, 0x00	; 0
     546:	a8 2a       	or	r10, r24
     548:	b9 2a       	or	r11, r25
     54a:	ca 2a       	or	r12, r26
     54c:	db 2a       	or	r13, r27
     54e:	31 96       	adiw	r30, 0x01	; 1
     550:	e0 32       	cpi	r30, 0x20	; 32
     552:	f1 05       	cpc	r31, r1
     554:	49 f0       	breq	.+18     	; 0x568 <__mulsf3+0x12a>
     556:	66 0c       	add	r6, r6
     558:	77 1c       	adc	r7, r7
     55a:	88 1c       	adc	r8, r8
     55c:	99 1c       	adc	r9, r9
     55e:	56 94       	lsr	r5
     560:	47 94       	ror	r4
     562:	37 94       	ror	r3
     564:	27 94       	ror	r2
     566:	c3 cf       	rjmp	.-122    	; 0x4ee <__mulsf3+0xb0>
     568:	fa 85       	ldd	r31, Y+10	; 0x0a
     56a:	ea 89       	ldd	r30, Y+18	; 0x12
     56c:	2b 89       	ldd	r18, Y+19	; 0x13
     56e:	3c 89       	ldd	r19, Y+20	; 0x14
     570:	8b 85       	ldd	r24, Y+11	; 0x0b
     572:	9c 85       	ldd	r25, Y+12	; 0x0c
     574:	28 0f       	add	r18, r24
     576:	39 1f       	adc	r19, r25
     578:	2e 5f       	subi	r18, 0xFE	; 254
     57a:	3f 4f       	sbci	r19, 0xFF	; 255
     57c:	17 c0       	rjmp	.+46     	; 0x5ac <__mulsf3+0x16e>
     57e:	ca 01       	movw	r24, r20
     580:	81 70       	andi	r24, 0x01	; 1
     582:	90 70       	andi	r25, 0x00	; 0
     584:	89 2b       	or	r24, r25
     586:	61 f0       	breq	.+24     	; 0x5a0 <__mulsf3+0x162>
     588:	16 95       	lsr	r17
     58a:	07 95       	ror	r16
     58c:	f7 94       	ror	r15
     58e:	e7 94       	ror	r14
     590:	80 e0       	ldi	r24, 0x00	; 0
     592:	90 e0       	ldi	r25, 0x00	; 0
     594:	a0 e0       	ldi	r26, 0x00	; 0
     596:	b0 e8       	ldi	r27, 0x80	; 128
     598:	e8 2a       	or	r14, r24
     59a:	f9 2a       	or	r15, r25
     59c:	0a 2b       	or	r16, r26
     59e:	1b 2b       	or	r17, r27
     5a0:	76 95       	lsr	r23
     5a2:	67 95       	ror	r22
     5a4:	57 95       	ror	r21
     5a6:	47 95       	ror	r20
     5a8:	2f 5f       	subi	r18, 0xFF	; 255
     5aa:	3f 4f       	sbci	r19, 0xFF	; 255
     5ac:	77 fd       	sbrc	r23, 7
     5ae:	e7 cf       	rjmp	.-50     	; 0x57e <__mulsf3+0x140>
     5b0:	0c c0       	rjmp	.+24     	; 0x5ca <__mulsf3+0x18c>
     5b2:	44 0f       	add	r20, r20
     5b4:	55 1f       	adc	r21, r21
     5b6:	66 1f       	adc	r22, r22
     5b8:	77 1f       	adc	r23, r23
     5ba:	17 fd       	sbrc	r17, 7
     5bc:	41 60       	ori	r20, 0x01	; 1
     5be:	ee 0c       	add	r14, r14
     5c0:	ff 1c       	adc	r15, r15
     5c2:	00 1f       	adc	r16, r16
     5c4:	11 1f       	adc	r17, r17
     5c6:	21 50       	subi	r18, 0x01	; 1
     5c8:	30 40       	sbci	r19, 0x00	; 0
     5ca:	40 30       	cpi	r20, 0x00	; 0
     5cc:	90 e0       	ldi	r25, 0x00	; 0
     5ce:	59 07       	cpc	r21, r25
     5d0:	90 e0       	ldi	r25, 0x00	; 0
     5d2:	69 07       	cpc	r22, r25
     5d4:	90 e4       	ldi	r25, 0x40	; 64
     5d6:	79 07       	cpc	r23, r25
     5d8:	60 f3       	brcs	.-40     	; 0x5b2 <__mulsf3+0x174>
     5da:	2b 8f       	std	Y+27, r18	; 0x1b
     5dc:	3c 8f       	std	Y+28, r19	; 0x1c
     5de:	db 01       	movw	r26, r22
     5e0:	ca 01       	movw	r24, r20
     5e2:	8f 77       	andi	r24, 0x7F	; 127
     5e4:	90 70       	andi	r25, 0x00	; 0
     5e6:	a0 70       	andi	r26, 0x00	; 0
     5e8:	b0 70       	andi	r27, 0x00	; 0
     5ea:	80 34       	cpi	r24, 0x40	; 64
     5ec:	91 05       	cpc	r25, r1
     5ee:	a1 05       	cpc	r26, r1
     5f0:	b1 05       	cpc	r27, r1
     5f2:	61 f4       	brne	.+24     	; 0x60c <__mulsf3+0x1ce>
     5f4:	47 fd       	sbrc	r20, 7
     5f6:	0a c0       	rjmp	.+20     	; 0x60c <__mulsf3+0x1ce>
     5f8:	e1 14       	cp	r14, r1
     5fa:	f1 04       	cpc	r15, r1
     5fc:	01 05       	cpc	r16, r1
     5fe:	11 05       	cpc	r17, r1
     600:	29 f0       	breq	.+10     	; 0x60c <__mulsf3+0x1ce>
     602:	40 5c       	subi	r20, 0xC0	; 192
     604:	5f 4f       	sbci	r21, 0xFF	; 255
     606:	6f 4f       	sbci	r22, 0xFF	; 255
     608:	7f 4f       	sbci	r23, 0xFF	; 255
     60a:	40 78       	andi	r20, 0x80	; 128
     60c:	1a 8e       	std	Y+26, r1	; 0x1a
     60e:	fe 17       	cp	r31, r30
     610:	11 f0       	breq	.+4      	; 0x616 <__mulsf3+0x1d8>
     612:	81 e0       	ldi	r24, 0x01	; 1
     614:	8a 8f       	std	Y+26, r24	; 0x1a
     616:	4d 8f       	std	Y+29, r20	; 0x1d
     618:	5e 8f       	std	Y+30, r21	; 0x1e
     61a:	6f 8f       	std	Y+31, r22	; 0x1f
     61c:	78 a3       	std	Y+32, r23	; 0x20
     61e:	83 e0       	ldi	r24, 0x03	; 3
     620:	89 8f       	std	Y+25, r24	; 0x19
     622:	ce 01       	movw	r24, r28
     624:	49 96       	adiw	r24, 0x19	; 25
     626:	0e 94 fd 03 	call	0x7fa	; 0x7fa <__pack_f>
     62a:	a0 96       	adiw	r28, 0x20	; 32
     62c:	e2 e1       	ldi	r30, 0x12	; 18
     62e:	0c 94 1b 22 	jmp	0x4436	; 0x4436 <__epilogue_restores__>

00000632 <__gtsf2>:
     632:	a8 e1       	ldi	r26, 0x18	; 24
     634:	b0 e0       	ldi	r27, 0x00	; 0
     636:	ef e1       	ldi	r30, 0x1F	; 31
     638:	f3 e0       	ldi	r31, 0x03	; 3
     63a:	0c 94 0b 22 	jmp	0x4416	; 0x4416 <__prologue_saves__+0x18>
     63e:	69 83       	std	Y+1, r22	; 0x01
     640:	7a 83       	std	Y+2, r23	; 0x02
     642:	8b 83       	std	Y+3, r24	; 0x03
     644:	9c 83       	std	Y+4, r25	; 0x04
     646:	2d 83       	std	Y+5, r18	; 0x05
     648:	3e 83       	std	Y+6, r19	; 0x06
     64a:	4f 83       	std	Y+7, r20	; 0x07
     64c:	58 87       	std	Y+8, r21	; 0x08
     64e:	89 e0       	ldi	r24, 0x09	; 9
     650:	e8 2e       	mov	r14, r24
     652:	f1 2c       	mov	r15, r1
     654:	ec 0e       	add	r14, r28
     656:	fd 1e       	adc	r15, r29
     658:	ce 01       	movw	r24, r28
     65a:	01 96       	adiw	r24, 0x01	; 1
     65c:	b7 01       	movw	r22, r14
     65e:	0e 94 d2 04 	call	0x9a4	; 0x9a4 <__unpack_f>
     662:	8e 01       	movw	r16, r28
     664:	0f 5e       	subi	r16, 0xEF	; 239
     666:	1f 4f       	sbci	r17, 0xFF	; 255
     668:	ce 01       	movw	r24, r28
     66a:	05 96       	adiw	r24, 0x05	; 5
     66c:	b8 01       	movw	r22, r16
     66e:	0e 94 d2 04 	call	0x9a4	; 0x9a4 <__unpack_f>
     672:	89 85       	ldd	r24, Y+9	; 0x09
     674:	82 30       	cpi	r24, 0x02	; 2
     676:	40 f0       	brcs	.+16     	; 0x688 <__gtsf2+0x56>
     678:	89 89       	ldd	r24, Y+17	; 0x11
     67a:	82 30       	cpi	r24, 0x02	; 2
     67c:	28 f0       	brcs	.+10     	; 0x688 <__gtsf2+0x56>
     67e:	c7 01       	movw	r24, r14
     680:	b8 01       	movw	r22, r16
     682:	0e 94 4a 05 	call	0xa94	; 0xa94 <__fpcmp_parts_f>
     686:	01 c0       	rjmp	.+2      	; 0x68a <__gtsf2+0x58>
     688:	8f ef       	ldi	r24, 0xFF	; 255
     68a:	68 96       	adiw	r28, 0x18	; 24
     68c:	e6 e0       	ldi	r30, 0x06	; 6
     68e:	0c 94 27 22 	jmp	0x444e	; 0x444e <__epilogue_restores__+0x18>

00000692 <__gesf2>:
     692:	a8 e1       	ldi	r26, 0x18	; 24
     694:	b0 e0       	ldi	r27, 0x00	; 0
     696:	ef e4       	ldi	r30, 0x4F	; 79
     698:	f3 e0       	ldi	r31, 0x03	; 3
     69a:	0c 94 0b 22 	jmp	0x4416	; 0x4416 <__prologue_saves__+0x18>
     69e:	69 83       	std	Y+1, r22	; 0x01
     6a0:	7a 83       	std	Y+2, r23	; 0x02
     6a2:	8b 83       	std	Y+3, r24	; 0x03
     6a4:	9c 83       	std	Y+4, r25	; 0x04
     6a6:	2d 83       	std	Y+5, r18	; 0x05
     6a8:	3e 83       	std	Y+6, r19	; 0x06
     6aa:	4f 83       	std	Y+7, r20	; 0x07
     6ac:	58 87       	std	Y+8, r21	; 0x08
     6ae:	89 e0       	ldi	r24, 0x09	; 9
     6b0:	e8 2e       	mov	r14, r24
     6b2:	f1 2c       	mov	r15, r1
     6b4:	ec 0e       	add	r14, r28
     6b6:	fd 1e       	adc	r15, r29
     6b8:	ce 01       	movw	r24, r28
     6ba:	01 96       	adiw	r24, 0x01	; 1
     6bc:	b7 01       	movw	r22, r14
     6be:	0e 94 d2 04 	call	0x9a4	; 0x9a4 <__unpack_f>
     6c2:	8e 01       	movw	r16, r28
     6c4:	0f 5e       	subi	r16, 0xEF	; 239
     6c6:	1f 4f       	sbci	r17, 0xFF	; 255
     6c8:	ce 01       	movw	r24, r28
     6ca:	05 96       	adiw	r24, 0x05	; 5
     6cc:	b8 01       	movw	r22, r16
     6ce:	0e 94 d2 04 	call	0x9a4	; 0x9a4 <__unpack_f>
     6d2:	89 85       	ldd	r24, Y+9	; 0x09
     6d4:	82 30       	cpi	r24, 0x02	; 2
     6d6:	40 f0       	brcs	.+16     	; 0x6e8 <__gesf2+0x56>
     6d8:	89 89       	ldd	r24, Y+17	; 0x11
     6da:	82 30       	cpi	r24, 0x02	; 2
     6dc:	28 f0       	brcs	.+10     	; 0x6e8 <__gesf2+0x56>
     6de:	c7 01       	movw	r24, r14
     6e0:	b8 01       	movw	r22, r16
     6e2:	0e 94 4a 05 	call	0xa94	; 0xa94 <__fpcmp_parts_f>
     6e6:	01 c0       	rjmp	.+2      	; 0x6ea <__gesf2+0x58>
     6e8:	8f ef       	ldi	r24, 0xFF	; 255
     6ea:	68 96       	adiw	r28, 0x18	; 24
     6ec:	e6 e0       	ldi	r30, 0x06	; 6
     6ee:	0c 94 27 22 	jmp	0x444e	; 0x444e <__epilogue_restores__+0x18>

000006f2 <__ltsf2>:
     6f2:	a8 e1       	ldi	r26, 0x18	; 24
     6f4:	b0 e0       	ldi	r27, 0x00	; 0
     6f6:	ef e7       	ldi	r30, 0x7F	; 127
     6f8:	f3 e0       	ldi	r31, 0x03	; 3
     6fa:	0c 94 0b 22 	jmp	0x4416	; 0x4416 <__prologue_saves__+0x18>
     6fe:	69 83       	std	Y+1, r22	; 0x01
     700:	7a 83       	std	Y+2, r23	; 0x02
     702:	8b 83       	std	Y+3, r24	; 0x03
     704:	9c 83       	std	Y+4, r25	; 0x04
     706:	2d 83       	std	Y+5, r18	; 0x05
     708:	3e 83       	std	Y+6, r19	; 0x06
     70a:	4f 83       	std	Y+7, r20	; 0x07
     70c:	58 87       	std	Y+8, r21	; 0x08
     70e:	89 e0       	ldi	r24, 0x09	; 9
     710:	e8 2e       	mov	r14, r24
     712:	f1 2c       	mov	r15, r1
     714:	ec 0e       	add	r14, r28
     716:	fd 1e       	adc	r15, r29
     718:	ce 01       	movw	r24, r28
     71a:	01 96       	adiw	r24, 0x01	; 1
     71c:	b7 01       	movw	r22, r14
     71e:	0e 94 d2 04 	call	0x9a4	; 0x9a4 <__unpack_f>
     722:	8e 01       	movw	r16, r28
     724:	0f 5e       	subi	r16, 0xEF	; 239
     726:	1f 4f       	sbci	r17, 0xFF	; 255
     728:	ce 01       	movw	r24, r28
     72a:	05 96       	adiw	r24, 0x05	; 5
     72c:	b8 01       	movw	r22, r16
     72e:	0e 94 d2 04 	call	0x9a4	; 0x9a4 <__unpack_f>
     732:	89 85       	ldd	r24, Y+9	; 0x09
     734:	82 30       	cpi	r24, 0x02	; 2
     736:	40 f0       	brcs	.+16     	; 0x748 <__ltsf2+0x56>
     738:	89 89       	ldd	r24, Y+17	; 0x11
     73a:	82 30       	cpi	r24, 0x02	; 2
     73c:	28 f0       	brcs	.+10     	; 0x748 <__ltsf2+0x56>
     73e:	c7 01       	movw	r24, r14
     740:	b8 01       	movw	r22, r16
     742:	0e 94 4a 05 	call	0xa94	; 0xa94 <__fpcmp_parts_f>
     746:	01 c0       	rjmp	.+2      	; 0x74a <__ltsf2+0x58>
     748:	81 e0       	ldi	r24, 0x01	; 1
     74a:	68 96       	adiw	r28, 0x18	; 24
     74c:	e6 e0       	ldi	r30, 0x06	; 6
     74e:	0c 94 27 22 	jmp	0x444e	; 0x444e <__epilogue_restores__+0x18>

00000752 <__fixsfsi>:
     752:	ac e0       	ldi	r26, 0x0C	; 12
     754:	b0 e0       	ldi	r27, 0x00	; 0
     756:	ef ea       	ldi	r30, 0xAF	; 175
     758:	f3 e0       	ldi	r31, 0x03	; 3
     75a:	0c 94 0f 22 	jmp	0x441e	; 0x441e <__prologue_saves__+0x20>
     75e:	69 83       	std	Y+1, r22	; 0x01
     760:	7a 83       	std	Y+2, r23	; 0x02
     762:	8b 83       	std	Y+3, r24	; 0x03
     764:	9c 83       	std	Y+4, r25	; 0x04
     766:	ce 01       	movw	r24, r28
     768:	01 96       	adiw	r24, 0x01	; 1
     76a:	be 01       	movw	r22, r28
     76c:	6b 5f       	subi	r22, 0xFB	; 251
     76e:	7f 4f       	sbci	r23, 0xFF	; 255
     770:	0e 94 d2 04 	call	0x9a4	; 0x9a4 <__unpack_f>
     774:	8d 81       	ldd	r24, Y+5	; 0x05
     776:	82 30       	cpi	r24, 0x02	; 2
     778:	61 f1       	breq	.+88     	; 0x7d2 <__fixsfsi+0x80>
     77a:	82 30       	cpi	r24, 0x02	; 2
     77c:	50 f1       	brcs	.+84     	; 0x7d2 <__fixsfsi+0x80>
     77e:	84 30       	cpi	r24, 0x04	; 4
     780:	21 f4       	brne	.+8      	; 0x78a <__fixsfsi+0x38>
     782:	8e 81       	ldd	r24, Y+6	; 0x06
     784:	88 23       	and	r24, r24
     786:	51 f1       	breq	.+84     	; 0x7dc <__fixsfsi+0x8a>
     788:	2e c0       	rjmp	.+92     	; 0x7e6 <__fixsfsi+0x94>
     78a:	2f 81       	ldd	r18, Y+7	; 0x07
     78c:	38 85       	ldd	r19, Y+8	; 0x08
     78e:	37 fd       	sbrc	r19, 7
     790:	20 c0       	rjmp	.+64     	; 0x7d2 <__fixsfsi+0x80>
     792:	6e 81       	ldd	r22, Y+6	; 0x06
     794:	2f 31       	cpi	r18, 0x1F	; 31
     796:	31 05       	cpc	r19, r1
     798:	1c f0       	brlt	.+6      	; 0x7a0 <__fixsfsi+0x4e>
     79a:	66 23       	and	r22, r22
     79c:	f9 f0       	breq	.+62     	; 0x7dc <__fixsfsi+0x8a>
     79e:	23 c0       	rjmp	.+70     	; 0x7e6 <__fixsfsi+0x94>
     7a0:	8e e1       	ldi	r24, 0x1E	; 30
     7a2:	90 e0       	ldi	r25, 0x00	; 0
     7a4:	82 1b       	sub	r24, r18
     7a6:	93 0b       	sbc	r25, r19
     7a8:	29 85       	ldd	r18, Y+9	; 0x09
     7aa:	3a 85       	ldd	r19, Y+10	; 0x0a
     7ac:	4b 85       	ldd	r20, Y+11	; 0x0b
     7ae:	5c 85       	ldd	r21, Y+12	; 0x0c
     7b0:	04 c0       	rjmp	.+8      	; 0x7ba <__fixsfsi+0x68>
     7b2:	56 95       	lsr	r21
     7b4:	47 95       	ror	r20
     7b6:	37 95       	ror	r19
     7b8:	27 95       	ror	r18
     7ba:	8a 95       	dec	r24
     7bc:	d2 f7       	brpl	.-12     	; 0x7b2 <__fixsfsi+0x60>
     7be:	66 23       	and	r22, r22
     7c0:	b1 f0       	breq	.+44     	; 0x7ee <__fixsfsi+0x9c>
     7c2:	50 95       	com	r21
     7c4:	40 95       	com	r20
     7c6:	30 95       	com	r19
     7c8:	21 95       	neg	r18
     7ca:	3f 4f       	sbci	r19, 0xFF	; 255
     7cc:	4f 4f       	sbci	r20, 0xFF	; 255
     7ce:	5f 4f       	sbci	r21, 0xFF	; 255
     7d0:	0e c0       	rjmp	.+28     	; 0x7ee <__fixsfsi+0x9c>
     7d2:	20 e0       	ldi	r18, 0x00	; 0
     7d4:	30 e0       	ldi	r19, 0x00	; 0
     7d6:	40 e0       	ldi	r20, 0x00	; 0
     7d8:	50 e0       	ldi	r21, 0x00	; 0
     7da:	09 c0       	rjmp	.+18     	; 0x7ee <__fixsfsi+0x9c>
     7dc:	2f ef       	ldi	r18, 0xFF	; 255
     7de:	3f ef       	ldi	r19, 0xFF	; 255
     7e0:	4f ef       	ldi	r20, 0xFF	; 255
     7e2:	5f e7       	ldi	r21, 0x7F	; 127
     7e4:	04 c0       	rjmp	.+8      	; 0x7ee <__fixsfsi+0x9c>
     7e6:	20 e0       	ldi	r18, 0x00	; 0
     7e8:	30 e0       	ldi	r19, 0x00	; 0
     7ea:	40 e0       	ldi	r20, 0x00	; 0
     7ec:	50 e8       	ldi	r21, 0x80	; 128
     7ee:	b9 01       	movw	r22, r18
     7f0:	ca 01       	movw	r24, r20
     7f2:	2c 96       	adiw	r28, 0x0c	; 12
     7f4:	e2 e0       	ldi	r30, 0x02	; 2
     7f6:	0c 94 2b 22 	jmp	0x4456	; 0x4456 <__epilogue_restores__+0x20>

000007fa <__pack_f>:
     7fa:	df 92       	push	r13
     7fc:	ef 92       	push	r14
     7fe:	ff 92       	push	r15
     800:	0f 93       	push	r16
     802:	1f 93       	push	r17
     804:	fc 01       	movw	r30, r24
     806:	e4 80       	ldd	r14, Z+4	; 0x04
     808:	f5 80       	ldd	r15, Z+5	; 0x05
     80a:	06 81       	ldd	r16, Z+6	; 0x06
     80c:	17 81       	ldd	r17, Z+7	; 0x07
     80e:	d1 80       	ldd	r13, Z+1	; 0x01
     810:	80 81       	ld	r24, Z
     812:	82 30       	cpi	r24, 0x02	; 2
     814:	48 f4       	brcc	.+18     	; 0x828 <__pack_f+0x2e>
     816:	80 e0       	ldi	r24, 0x00	; 0
     818:	90 e0       	ldi	r25, 0x00	; 0
     81a:	a0 e1       	ldi	r26, 0x10	; 16
     81c:	b0 e0       	ldi	r27, 0x00	; 0
     81e:	e8 2a       	or	r14, r24
     820:	f9 2a       	or	r15, r25
     822:	0a 2b       	or	r16, r26
     824:	1b 2b       	or	r17, r27
     826:	a5 c0       	rjmp	.+330    	; 0x972 <__stack+0x113>
     828:	84 30       	cpi	r24, 0x04	; 4
     82a:	09 f4       	brne	.+2      	; 0x82e <__pack_f+0x34>
     82c:	9f c0       	rjmp	.+318    	; 0x96c <__stack+0x10d>
     82e:	82 30       	cpi	r24, 0x02	; 2
     830:	21 f4       	brne	.+8      	; 0x83a <__pack_f+0x40>
     832:	ee 24       	eor	r14, r14
     834:	ff 24       	eor	r15, r15
     836:	87 01       	movw	r16, r14
     838:	05 c0       	rjmp	.+10     	; 0x844 <__pack_f+0x4a>
     83a:	e1 14       	cp	r14, r1
     83c:	f1 04       	cpc	r15, r1
     83e:	01 05       	cpc	r16, r1
     840:	11 05       	cpc	r17, r1
     842:	19 f4       	brne	.+6      	; 0x84a <__pack_f+0x50>
     844:	e0 e0       	ldi	r30, 0x00	; 0
     846:	f0 e0       	ldi	r31, 0x00	; 0
     848:	96 c0       	rjmp	.+300    	; 0x976 <__stack+0x117>
     84a:	62 81       	ldd	r22, Z+2	; 0x02
     84c:	73 81       	ldd	r23, Z+3	; 0x03
     84e:	9f ef       	ldi	r25, 0xFF	; 255
     850:	62 38       	cpi	r22, 0x82	; 130
     852:	79 07       	cpc	r23, r25
     854:	0c f0       	brlt	.+2      	; 0x858 <__pack_f+0x5e>
     856:	5b c0       	rjmp	.+182    	; 0x90e <__stack+0xaf>
     858:	22 e8       	ldi	r18, 0x82	; 130
     85a:	3f ef       	ldi	r19, 0xFF	; 255
     85c:	26 1b       	sub	r18, r22
     85e:	37 0b       	sbc	r19, r23
     860:	2a 31       	cpi	r18, 0x1A	; 26
     862:	31 05       	cpc	r19, r1
     864:	2c f0       	brlt	.+10     	; 0x870 <__stack+0x11>
     866:	20 e0       	ldi	r18, 0x00	; 0
     868:	30 e0       	ldi	r19, 0x00	; 0
     86a:	40 e0       	ldi	r20, 0x00	; 0
     86c:	50 e0       	ldi	r21, 0x00	; 0
     86e:	2a c0       	rjmp	.+84     	; 0x8c4 <__stack+0x65>
     870:	b8 01       	movw	r22, r16
     872:	a7 01       	movw	r20, r14
     874:	02 2e       	mov	r0, r18
     876:	04 c0       	rjmp	.+8      	; 0x880 <__stack+0x21>
     878:	76 95       	lsr	r23
     87a:	67 95       	ror	r22
     87c:	57 95       	ror	r21
     87e:	47 95       	ror	r20
     880:	0a 94       	dec	r0
     882:	d2 f7       	brpl	.-12     	; 0x878 <__stack+0x19>
     884:	81 e0       	ldi	r24, 0x01	; 1
     886:	90 e0       	ldi	r25, 0x00	; 0
     888:	a0 e0       	ldi	r26, 0x00	; 0
     88a:	b0 e0       	ldi	r27, 0x00	; 0
     88c:	04 c0       	rjmp	.+8      	; 0x896 <__stack+0x37>
     88e:	88 0f       	add	r24, r24
     890:	99 1f       	adc	r25, r25
     892:	aa 1f       	adc	r26, r26
     894:	bb 1f       	adc	r27, r27
     896:	2a 95       	dec	r18
     898:	d2 f7       	brpl	.-12     	; 0x88e <__stack+0x2f>
     89a:	01 97       	sbiw	r24, 0x01	; 1
     89c:	a1 09       	sbc	r26, r1
     89e:	b1 09       	sbc	r27, r1
     8a0:	8e 21       	and	r24, r14
     8a2:	9f 21       	and	r25, r15
     8a4:	a0 23       	and	r26, r16
     8a6:	b1 23       	and	r27, r17
     8a8:	00 97       	sbiw	r24, 0x00	; 0
     8aa:	a1 05       	cpc	r26, r1
     8ac:	b1 05       	cpc	r27, r1
     8ae:	21 f0       	breq	.+8      	; 0x8b8 <__stack+0x59>
     8b0:	81 e0       	ldi	r24, 0x01	; 1
     8b2:	90 e0       	ldi	r25, 0x00	; 0
     8b4:	a0 e0       	ldi	r26, 0x00	; 0
     8b6:	b0 e0       	ldi	r27, 0x00	; 0
     8b8:	9a 01       	movw	r18, r20
     8ba:	ab 01       	movw	r20, r22
     8bc:	28 2b       	or	r18, r24
     8be:	39 2b       	or	r19, r25
     8c0:	4a 2b       	or	r20, r26
     8c2:	5b 2b       	or	r21, r27
     8c4:	da 01       	movw	r26, r20
     8c6:	c9 01       	movw	r24, r18
     8c8:	8f 77       	andi	r24, 0x7F	; 127
     8ca:	90 70       	andi	r25, 0x00	; 0
     8cc:	a0 70       	andi	r26, 0x00	; 0
     8ce:	b0 70       	andi	r27, 0x00	; 0
     8d0:	80 34       	cpi	r24, 0x40	; 64
     8d2:	91 05       	cpc	r25, r1
     8d4:	a1 05       	cpc	r26, r1
     8d6:	b1 05       	cpc	r27, r1
     8d8:	39 f4       	brne	.+14     	; 0x8e8 <__stack+0x89>
     8da:	27 ff       	sbrs	r18, 7
     8dc:	09 c0       	rjmp	.+18     	; 0x8f0 <__stack+0x91>
     8de:	20 5c       	subi	r18, 0xC0	; 192
     8e0:	3f 4f       	sbci	r19, 0xFF	; 255
     8e2:	4f 4f       	sbci	r20, 0xFF	; 255
     8e4:	5f 4f       	sbci	r21, 0xFF	; 255
     8e6:	04 c0       	rjmp	.+8      	; 0x8f0 <__stack+0x91>
     8e8:	21 5c       	subi	r18, 0xC1	; 193
     8ea:	3f 4f       	sbci	r19, 0xFF	; 255
     8ec:	4f 4f       	sbci	r20, 0xFF	; 255
     8ee:	5f 4f       	sbci	r21, 0xFF	; 255
     8f0:	e0 e0       	ldi	r30, 0x00	; 0
     8f2:	f0 e0       	ldi	r31, 0x00	; 0
     8f4:	20 30       	cpi	r18, 0x00	; 0
     8f6:	a0 e0       	ldi	r26, 0x00	; 0
     8f8:	3a 07       	cpc	r19, r26
     8fa:	a0 e0       	ldi	r26, 0x00	; 0
     8fc:	4a 07       	cpc	r20, r26
     8fe:	a0 e4       	ldi	r26, 0x40	; 64
     900:	5a 07       	cpc	r21, r26
     902:	10 f0       	brcs	.+4      	; 0x908 <__stack+0xa9>
     904:	e1 e0       	ldi	r30, 0x01	; 1
     906:	f0 e0       	ldi	r31, 0x00	; 0
     908:	79 01       	movw	r14, r18
     90a:	8a 01       	movw	r16, r20
     90c:	27 c0       	rjmp	.+78     	; 0x95c <__stack+0xfd>
     90e:	60 38       	cpi	r22, 0x80	; 128
     910:	71 05       	cpc	r23, r1
     912:	64 f5       	brge	.+88     	; 0x96c <__stack+0x10d>
     914:	fb 01       	movw	r30, r22
     916:	e1 58       	subi	r30, 0x81	; 129
     918:	ff 4f       	sbci	r31, 0xFF	; 255
     91a:	d8 01       	movw	r26, r16
     91c:	c7 01       	movw	r24, r14
     91e:	8f 77       	andi	r24, 0x7F	; 127
     920:	90 70       	andi	r25, 0x00	; 0
     922:	a0 70       	andi	r26, 0x00	; 0
     924:	b0 70       	andi	r27, 0x00	; 0
     926:	80 34       	cpi	r24, 0x40	; 64
     928:	91 05       	cpc	r25, r1
     92a:	a1 05       	cpc	r26, r1
     92c:	b1 05       	cpc	r27, r1
     92e:	39 f4       	brne	.+14     	; 0x93e <__stack+0xdf>
     930:	e7 fe       	sbrs	r14, 7
     932:	0d c0       	rjmp	.+26     	; 0x94e <__stack+0xef>
     934:	80 e4       	ldi	r24, 0x40	; 64
     936:	90 e0       	ldi	r25, 0x00	; 0
     938:	a0 e0       	ldi	r26, 0x00	; 0
     93a:	b0 e0       	ldi	r27, 0x00	; 0
     93c:	04 c0       	rjmp	.+8      	; 0x946 <__stack+0xe7>
     93e:	8f e3       	ldi	r24, 0x3F	; 63
     940:	90 e0       	ldi	r25, 0x00	; 0
     942:	a0 e0       	ldi	r26, 0x00	; 0
     944:	b0 e0       	ldi	r27, 0x00	; 0
     946:	e8 0e       	add	r14, r24
     948:	f9 1e       	adc	r15, r25
     94a:	0a 1f       	adc	r16, r26
     94c:	1b 1f       	adc	r17, r27
     94e:	17 ff       	sbrs	r17, 7
     950:	05 c0       	rjmp	.+10     	; 0x95c <__stack+0xfd>
     952:	16 95       	lsr	r17
     954:	07 95       	ror	r16
     956:	f7 94       	ror	r15
     958:	e7 94       	ror	r14
     95a:	31 96       	adiw	r30, 0x01	; 1
     95c:	87 e0       	ldi	r24, 0x07	; 7
     95e:	16 95       	lsr	r17
     960:	07 95       	ror	r16
     962:	f7 94       	ror	r15
     964:	e7 94       	ror	r14
     966:	8a 95       	dec	r24
     968:	d1 f7       	brne	.-12     	; 0x95e <__stack+0xff>
     96a:	05 c0       	rjmp	.+10     	; 0x976 <__stack+0x117>
     96c:	ee 24       	eor	r14, r14
     96e:	ff 24       	eor	r15, r15
     970:	87 01       	movw	r16, r14
     972:	ef ef       	ldi	r30, 0xFF	; 255
     974:	f0 e0       	ldi	r31, 0x00	; 0
     976:	6e 2f       	mov	r22, r30
     978:	67 95       	ror	r22
     97a:	66 27       	eor	r22, r22
     97c:	67 95       	ror	r22
     97e:	90 2f       	mov	r25, r16
     980:	9f 77       	andi	r25, 0x7F	; 127
     982:	d7 94       	ror	r13
     984:	dd 24       	eor	r13, r13
     986:	d7 94       	ror	r13
     988:	8e 2f       	mov	r24, r30
     98a:	86 95       	lsr	r24
     98c:	49 2f       	mov	r20, r25
     98e:	46 2b       	or	r20, r22
     990:	58 2f       	mov	r21, r24
     992:	5d 29       	or	r21, r13
     994:	b7 01       	movw	r22, r14
     996:	ca 01       	movw	r24, r20
     998:	1f 91       	pop	r17
     99a:	0f 91       	pop	r16
     99c:	ff 90       	pop	r15
     99e:	ef 90       	pop	r14
     9a0:	df 90       	pop	r13
     9a2:	08 95       	ret

000009a4 <__unpack_f>:
     9a4:	fc 01       	movw	r30, r24
     9a6:	db 01       	movw	r26, r22
     9a8:	40 81       	ld	r20, Z
     9aa:	51 81       	ldd	r21, Z+1	; 0x01
     9ac:	22 81       	ldd	r18, Z+2	; 0x02
     9ae:	62 2f       	mov	r22, r18
     9b0:	6f 77       	andi	r22, 0x7F	; 127
     9b2:	70 e0       	ldi	r23, 0x00	; 0
     9b4:	22 1f       	adc	r18, r18
     9b6:	22 27       	eor	r18, r18
     9b8:	22 1f       	adc	r18, r18
     9ba:	93 81       	ldd	r25, Z+3	; 0x03
     9bc:	89 2f       	mov	r24, r25
     9be:	88 0f       	add	r24, r24
     9c0:	82 2b       	or	r24, r18
     9c2:	28 2f       	mov	r18, r24
     9c4:	30 e0       	ldi	r19, 0x00	; 0
     9c6:	99 1f       	adc	r25, r25
     9c8:	99 27       	eor	r25, r25
     9ca:	99 1f       	adc	r25, r25
     9cc:	11 96       	adiw	r26, 0x01	; 1
     9ce:	9c 93       	st	X, r25
     9d0:	11 97       	sbiw	r26, 0x01	; 1
     9d2:	21 15       	cp	r18, r1
     9d4:	31 05       	cpc	r19, r1
     9d6:	a9 f5       	brne	.+106    	; 0xa42 <__unpack_f+0x9e>
     9d8:	41 15       	cp	r20, r1
     9da:	51 05       	cpc	r21, r1
     9dc:	61 05       	cpc	r22, r1
     9de:	71 05       	cpc	r23, r1
     9e0:	11 f4       	brne	.+4      	; 0x9e6 <__unpack_f+0x42>
     9e2:	82 e0       	ldi	r24, 0x02	; 2
     9e4:	37 c0       	rjmp	.+110    	; 0xa54 <__unpack_f+0xb0>
     9e6:	82 e8       	ldi	r24, 0x82	; 130
     9e8:	9f ef       	ldi	r25, 0xFF	; 255
     9ea:	13 96       	adiw	r26, 0x03	; 3
     9ec:	9c 93       	st	X, r25
     9ee:	8e 93       	st	-X, r24
     9f0:	12 97       	sbiw	r26, 0x02	; 2
     9f2:	9a 01       	movw	r18, r20
     9f4:	ab 01       	movw	r20, r22
     9f6:	67 e0       	ldi	r22, 0x07	; 7
     9f8:	22 0f       	add	r18, r18
     9fa:	33 1f       	adc	r19, r19
     9fc:	44 1f       	adc	r20, r20
     9fe:	55 1f       	adc	r21, r21
     a00:	6a 95       	dec	r22
     a02:	d1 f7       	brne	.-12     	; 0x9f8 <__unpack_f+0x54>
     a04:	83 e0       	ldi	r24, 0x03	; 3
     a06:	8c 93       	st	X, r24
     a08:	0d c0       	rjmp	.+26     	; 0xa24 <__unpack_f+0x80>
     a0a:	22 0f       	add	r18, r18
     a0c:	33 1f       	adc	r19, r19
     a0e:	44 1f       	adc	r20, r20
     a10:	55 1f       	adc	r21, r21
     a12:	12 96       	adiw	r26, 0x02	; 2
     a14:	8d 91       	ld	r24, X+
     a16:	9c 91       	ld	r25, X
     a18:	13 97       	sbiw	r26, 0x03	; 3
     a1a:	01 97       	sbiw	r24, 0x01	; 1
     a1c:	13 96       	adiw	r26, 0x03	; 3
     a1e:	9c 93       	st	X, r25
     a20:	8e 93       	st	-X, r24
     a22:	12 97       	sbiw	r26, 0x02	; 2
     a24:	20 30       	cpi	r18, 0x00	; 0
     a26:	80 e0       	ldi	r24, 0x00	; 0
     a28:	38 07       	cpc	r19, r24
     a2a:	80 e0       	ldi	r24, 0x00	; 0
     a2c:	48 07       	cpc	r20, r24
     a2e:	80 e4       	ldi	r24, 0x40	; 64
     a30:	58 07       	cpc	r21, r24
     a32:	58 f3       	brcs	.-42     	; 0xa0a <__unpack_f+0x66>
     a34:	14 96       	adiw	r26, 0x04	; 4
     a36:	2d 93       	st	X+, r18
     a38:	3d 93       	st	X+, r19
     a3a:	4d 93       	st	X+, r20
     a3c:	5c 93       	st	X, r21
     a3e:	17 97       	sbiw	r26, 0x07	; 7
     a40:	08 95       	ret
     a42:	2f 3f       	cpi	r18, 0xFF	; 255
     a44:	31 05       	cpc	r19, r1
     a46:	79 f4       	brne	.+30     	; 0xa66 <__unpack_f+0xc2>
     a48:	41 15       	cp	r20, r1
     a4a:	51 05       	cpc	r21, r1
     a4c:	61 05       	cpc	r22, r1
     a4e:	71 05       	cpc	r23, r1
     a50:	19 f4       	brne	.+6      	; 0xa58 <__unpack_f+0xb4>
     a52:	84 e0       	ldi	r24, 0x04	; 4
     a54:	8c 93       	st	X, r24
     a56:	08 95       	ret
     a58:	64 ff       	sbrs	r22, 4
     a5a:	03 c0       	rjmp	.+6      	; 0xa62 <__unpack_f+0xbe>
     a5c:	81 e0       	ldi	r24, 0x01	; 1
     a5e:	8c 93       	st	X, r24
     a60:	12 c0       	rjmp	.+36     	; 0xa86 <__unpack_f+0xe2>
     a62:	1c 92       	st	X, r1
     a64:	10 c0       	rjmp	.+32     	; 0xa86 <__unpack_f+0xe2>
     a66:	2f 57       	subi	r18, 0x7F	; 127
     a68:	30 40       	sbci	r19, 0x00	; 0
     a6a:	13 96       	adiw	r26, 0x03	; 3
     a6c:	3c 93       	st	X, r19
     a6e:	2e 93       	st	-X, r18
     a70:	12 97       	sbiw	r26, 0x02	; 2
     a72:	83 e0       	ldi	r24, 0x03	; 3
     a74:	8c 93       	st	X, r24
     a76:	87 e0       	ldi	r24, 0x07	; 7
     a78:	44 0f       	add	r20, r20
     a7a:	55 1f       	adc	r21, r21
     a7c:	66 1f       	adc	r22, r22
     a7e:	77 1f       	adc	r23, r23
     a80:	8a 95       	dec	r24
     a82:	d1 f7       	brne	.-12     	; 0xa78 <__unpack_f+0xd4>
     a84:	70 64       	ori	r23, 0x40	; 64
     a86:	14 96       	adiw	r26, 0x04	; 4
     a88:	4d 93       	st	X+, r20
     a8a:	5d 93       	st	X+, r21
     a8c:	6d 93       	st	X+, r22
     a8e:	7c 93       	st	X, r23
     a90:	17 97       	sbiw	r26, 0x07	; 7
     a92:	08 95       	ret

00000a94 <__fpcmp_parts_f>:
     a94:	1f 93       	push	r17
     a96:	dc 01       	movw	r26, r24
     a98:	fb 01       	movw	r30, r22
     a9a:	9c 91       	ld	r25, X
     a9c:	92 30       	cpi	r25, 0x02	; 2
     a9e:	08 f4       	brcc	.+2      	; 0xaa2 <__fpcmp_parts_f+0xe>
     aa0:	47 c0       	rjmp	.+142    	; 0xb30 <__fpcmp_parts_f+0x9c>
     aa2:	80 81       	ld	r24, Z
     aa4:	82 30       	cpi	r24, 0x02	; 2
     aa6:	08 f4       	brcc	.+2      	; 0xaaa <__fpcmp_parts_f+0x16>
     aa8:	43 c0       	rjmp	.+134    	; 0xb30 <__fpcmp_parts_f+0x9c>
     aaa:	94 30       	cpi	r25, 0x04	; 4
     aac:	51 f4       	brne	.+20     	; 0xac2 <__fpcmp_parts_f+0x2e>
     aae:	11 96       	adiw	r26, 0x01	; 1
     ab0:	1c 91       	ld	r17, X
     ab2:	84 30       	cpi	r24, 0x04	; 4
     ab4:	99 f5       	brne	.+102    	; 0xb1c <__fpcmp_parts_f+0x88>
     ab6:	81 81       	ldd	r24, Z+1	; 0x01
     ab8:	68 2f       	mov	r22, r24
     aba:	70 e0       	ldi	r23, 0x00	; 0
     abc:	61 1b       	sub	r22, r17
     abe:	71 09       	sbc	r23, r1
     ac0:	3f c0       	rjmp	.+126    	; 0xb40 <__fpcmp_parts_f+0xac>
     ac2:	84 30       	cpi	r24, 0x04	; 4
     ac4:	21 f0       	breq	.+8      	; 0xace <__fpcmp_parts_f+0x3a>
     ac6:	92 30       	cpi	r25, 0x02	; 2
     ac8:	31 f4       	brne	.+12     	; 0xad6 <__fpcmp_parts_f+0x42>
     aca:	82 30       	cpi	r24, 0x02	; 2
     acc:	b9 f1       	breq	.+110    	; 0xb3c <__fpcmp_parts_f+0xa8>
     ace:	81 81       	ldd	r24, Z+1	; 0x01
     ad0:	88 23       	and	r24, r24
     ad2:	89 f1       	breq	.+98     	; 0xb36 <__fpcmp_parts_f+0xa2>
     ad4:	2d c0       	rjmp	.+90     	; 0xb30 <__fpcmp_parts_f+0x9c>
     ad6:	11 96       	adiw	r26, 0x01	; 1
     ad8:	1c 91       	ld	r17, X
     ada:	11 97       	sbiw	r26, 0x01	; 1
     adc:	82 30       	cpi	r24, 0x02	; 2
     ade:	f1 f0       	breq	.+60     	; 0xb1c <__fpcmp_parts_f+0x88>
     ae0:	81 81       	ldd	r24, Z+1	; 0x01
     ae2:	18 17       	cp	r17, r24
     ae4:	d9 f4       	brne	.+54     	; 0xb1c <__fpcmp_parts_f+0x88>
     ae6:	12 96       	adiw	r26, 0x02	; 2
     ae8:	2d 91       	ld	r18, X+
     aea:	3c 91       	ld	r19, X
     aec:	13 97       	sbiw	r26, 0x03	; 3
     aee:	82 81       	ldd	r24, Z+2	; 0x02
     af0:	93 81       	ldd	r25, Z+3	; 0x03
     af2:	82 17       	cp	r24, r18
     af4:	93 07       	cpc	r25, r19
     af6:	94 f0       	brlt	.+36     	; 0xb1c <__fpcmp_parts_f+0x88>
     af8:	28 17       	cp	r18, r24
     afa:	39 07       	cpc	r19, r25
     afc:	bc f0       	brlt	.+46     	; 0xb2c <__fpcmp_parts_f+0x98>
     afe:	14 96       	adiw	r26, 0x04	; 4
     b00:	8d 91       	ld	r24, X+
     b02:	9d 91       	ld	r25, X+
     b04:	0d 90       	ld	r0, X+
     b06:	bc 91       	ld	r27, X
     b08:	a0 2d       	mov	r26, r0
     b0a:	24 81       	ldd	r18, Z+4	; 0x04
     b0c:	35 81       	ldd	r19, Z+5	; 0x05
     b0e:	46 81       	ldd	r20, Z+6	; 0x06
     b10:	57 81       	ldd	r21, Z+7	; 0x07
     b12:	28 17       	cp	r18, r24
     b14:	39 07       	cpc	r19, r25
     b16:	4a 07       	cpc	r20, r26
     b18:	5b 07       	cpc	r21, r27
     b1a:	18 f4       	brcc	.+6      	; 0xb22 <__fpcmp_parts_f+0x8e>
     b1c:	11 23       	and	r17, r17
     b1e:	41 f0       	breq	.+16     	; 0xb30 <__fpcmp_parts_f+0x9c>
     b20:	0a c0       	rjmp	.+20     	; 0xb36 <__fpcmp_parts_f+0xa2>
     b22:	82 17       	cp	r24, r18
     b24:	93 07       	cpc	r25, r19
     b26:	a4 07       	cpc	r26, r20
     b28:	b5 07       	cpc	r27, r21
     b2a:	40 f4       	brcc	.+16     	; 0xb3c <__fpcmp_parts_f+0xa8>
     b2c:	11 23       	and	r17, r17
     b2e:	19 f0       	breq	.+6      	; 0xb36 <__fpcmp_parts_f+0xa2>
     b30:	61 e0       	ldi	r22, 0x01	; 1
     b32:	70 e0       	ldi	r23, 0x00	; 0
     b34:	05 c0       	rjmp	.+10     	; 0xb40 <__fpcmp_parts_f+0xac>
     b36:	6f ef       	ldi	r22, 0xFF	; 255
     b38:	7f ef       	ldi	r23, 0xFF	; 255
     b3a:	02 c0       	rjmp	.+4      	; 0xb40 <__fpcmp_parts_f+0xac>
     b3c:	60 e0       	ldi	r22, 0x00	; 0
     b3e:	70 e0       	ldi	r23, 0x00	; 0
     b40:	cb 01       	movw	r24, r22
     b42:	1f 91       	pop	r17
     b44:	08 95       	ret

00000b46 <AD_Init>:
#include "../MCAL/stdTypes.h"
#include "ADC_Private.h"
#include "../MCAL/AVR_REG.h"
#include "ADC_Config.h"
void AD_Init(u8 Vref , u8 Prescaler)
{
     b46:	df 93       	push	r29
     b48:	cf 93       	push	r28
     b4a:	00 d0       	rcall	.+0      	; 0xb4c <AD_Init+0x6>
     b4c:	00 d0       	rcall	.+0      	; 0xb4e <AD_Init+0x8>
     b4e:	00 d0       	rcall	.+0      	; 0xb50 <AD_Init+0xa>
     b50:	cd b7       	in	r28, 0x3d	; 61
     b52:	de b7       	in	r29, 0x3e	; 62
     b54:	89 83       	std	Y+1, r24	; 0x01
     b56:	6a 83       	std	Y+2, r22	; 0x02
switch(Prescaler)
     b58:	8a 81       	ldd	r24, Y+2	; 0x02
     b5a:	28 2f       	mov	r18, r24
     b5c:	30 e0       	ldi	r19, 0x00	; 0
     b5e:	3e 83       	std	Y+6, r19	; 0x06
     b60:	2d 83       	std	Y+5, r18	; 0x05
     b62:	8d 81       	ldd	r24, Y+5	; 0x05
     b64:	9e 81       	ldd	r25, Y+6	; 0x06
     b66:	80 31       	cpi	r24, 0x10	; 16
     b68:	91 05       	cpc	r25, r1
     b6a:	09 f4       	brne	.+2      	; 0xb6e <AD_Init+0x28>
     b6c:	6b c0       	rjmp	.+214    	; 0xc44 <AD_Init+0xfe>
     b6e:	2d 81       	ldd	r18, Y+5	; 0x05
     b70:	3e 81       	ldd	r19, Y+6	; 0x06
     b72:	21 31       	cpi	r18, 0x11	; 17
     b74:	31 05       	cpc	r19, r1
     b76:	8c f4       	brge	.+34     	; 0xb9a <AD_Init+0x54>
     b78:	8d 81       	ldd	r24, Y+5	; 0x05
     b7a:	9e 81       	ldd	r25, Y+6	; 0x06
     b7c:	84 30       	cpi	r24, 0x04	; 4
     b7e:	91 05       	cpc	r25, r1
     b80:	a9 f1       	breq	.+106    	; 0xbec <AD_Init+0xa6>
     b82:	2d 81       	ldd	r18, Y+5	; 0x05
     b84:	3e 81       	ldd	r19, Y+6	; 0x06
     b86:	28 30       	cpi	r18, 0x08	; 8
     b88:	31 05       	cpc	r19, r1
     b8a:	09 f4       	brne	.+2      	; 0xb8e <AD_Init+0x48>
     b8c:	45 c0       	rjmp	.+138    	; 0xc18 <AD_Init+0xd2>
     b8e:	8d 81       	ldd	r24, Y+5	; 0x05
     b90:	9e 81       	ldd	r25, Y+6	; 0x06
     b92:	82 30       	cpi	r24, 0x02	; 2
     b94:	91 05       	cpc	r25, r1
     b96:	a1 f0       	breq	.+40     	; 0xbc0 <AD_Init+0x7a>
     b98:	ac c0       	rjmp	.+344    	; 0xcf2 <AD_Init+0x1ac>
     b9a:	2d 81       	ldd	r18, Y+5	; 0x05
     b9c:	3e 81       	ldd	r19, Y+6	; 0x06
     b9e:	20 34       	cpi	r18, 0x40	; 64
     ba0:	31 05       	cpc	r19, r1
     ba2:	09 f4       	brne	.+2      	; 0xba6 <AD_Init+0x60>
     ba4:	7b c0       	rjmp	.+246    	; 0xc9c <AD_Init+0x156>
     ba6:	8d 81       	ldd	r24, Y+5	; 0x05
     ba8:	9e 81       	ldd	r25, Y+6	; 0x06
     baa:	80 38       	cpi	r24, 0x80	; 128
     bac:	91 05       	cpc	r25, r1
     bae:	09 f4       	brne	.+2      	; 0xbb2 <AD_Init+0x6c>
     bb0:	8b c0       	rjmp	.+278    	; 0xcc8 <AD_Init+0x182>
     bb2:	2d 81       	ldd	r18, Y+5	; 0x05
     bb4:	3e 81       	ldd	r19, Y+6	; 0x06
     bb6:	20 32       	cpi	r18, 0x20	; 32
     bb8:	31 05       	cpc	r19, r1
     bba:	09 f4       	brne	.+2      	; 0xbbe <AD_Init+0x78>
     bbc:	59 c0       	rjmp	.+178    	; 0xc70 <AD_Init+0x12a>
     bbe:	99 c0       	rjmp	.+306    	; 0xcf2 <AD_Init+0x1ac>
{
   case 2:
	ADCSRA |= (1<<ADPS0);
     bc0:	a6 e2       	ldi	r26, 0x26	; 38
     bc2:	b0 e0       	ldi	r27, 0x00	; 0
     bc4:	e6 e2       	ldi	r30, 0x26	; 38
     bc6:	f0 e0       	ldi	r31, 0x00	; 0
     bc8:	80 81       	ld	r24, Z
     bca:	81 60       	ori	r24, 0x01	; 1
     bcc:	8c 93       	st	X, r24
	ADCSRA &=~(1<<ADPS1);
     bce:	a6 e2       	ldi	r26, 0x26	; 38
     bd0:	b0 e0       	ldi	r27, 0x00	; 0
     bd2:	e6 e2       	ldi	r30, 0x26	; 38
     bd4:	f0 e0       	ldi	r31, 0x00	; 0
     bd6:	80 81       	ld	r24, Z
     bd8:	8d 7f       	andi	r24, 0xFD	; 253
     bda:	8c 93       	st	X, r24
	ADCSRA &=~(1<<ADPS2);
     bdc:	a6 e2       	ldi	r26, 0x26	; 38
     bde:	b0 e0       	ldi	r27, 0x00	; 0
     be0:	e6 e2       	ldi	r30, 0x26	; 38
     be2:	f0 e0       	ldi	r31, 0x00	; 0
     be4:	80 81       	ld	r24, Z
     be6:	8b 7f       	andi	r24, 0xFB	; 251
     be8:	8c 93       	st	X, r24
     bea:	83 c0       	rjmp	.+262    	; 0xcf2 <AD_Init+0x1ac>
	break;
   case 4:
	ADCSRA &=~(1<<ADPS0);
     bec:	a6 e2       	ldi	r26, 0x26	; 38
     bee:	b0 e0       	ldi	r27, 0x00	; 0
     bf0:	e6 e2       	ldi	r30, 0x26	; 38
     bf2:	f0 e0       	ldi	r31, 0x00	; 0
     bf4:	80 81       	ld	r24, Z
     bf6:	8e 7f       	andi	r24, 0xFE	; 254
     bf8:	8c 93       	st	X, r24
	ADCSRA |= (1<<ADPS1);
     bfa:	a6 e2       	ldi	r26, 0x26	; 38
     bfc:	b0 e0       	ldi	r27, 0x00	; 0
     bfe:	e6 e2       	ldi	r30, 0x26	; 38
     c00:	f0 e0       	ldi	r31, 0x00	; 0
     c02:	80 81       	ld	r24, Z
     c04:	82 60       	ori	r24, 0x02	; 2
     c06:	8c 93       	st	X, r24
	ADCSRA &=~(1<<ADPS2);
     c08:	a6 e2       	ldi	r26, 0x26	; 38
     c0a:	b0 e0       	ldi	r27, 0x00	; 0
     c0c:	e6 e2       	ldi	r30, 0x26	; 38
     c0e:	f0 e0       	ldi	r31, 0x00	; 0
     c10:	80 81       	ld	r24, Z
     c12:	8b 7f       	andi	r24, 0xFB	; 251
     c14:	8c 93       	st	X, r24
     c16:	6d c0       	rjmp	.+218    	; 0xcf2 <AD_Init+0x1ac>
	break;
   case 8:
	ADCSRA |= (1<<ADPS0);
     c18:	a6 e2       	ldi	r26, 0x26	; 38
     c1a:	b0 e0       	ldi	r27, 0x00	; 0
     c1c:	e6 e2       	ldi	r30, 0x26	; 38
     c1e:	f0 e0       	ldi	r31, 0x00	; 0
     c20:	80 81       	ld	r24, Z
     c22:	81 60       	ori	r24, 0x01	; 1
     c24:	8c 93       	st	X, r24
	ADCSRA |= (1<<ADPS1);
     c26:	a6 e2       	ldi	r26, 0x26	; 38
     c28:	b0 e0       	ldi	r27, 0x00	; 0
     c2a:	e6 e2       	ldi	r30, 0x26	; 38
     c2c:	f0 e0       	ldi	r31, 0x00	; 0
     c2e:	80 81       	ld	r24, Z
     c30:	82 60       	ori	r24, 0x02	; 2
     c32:	8c 93       	st	X, r24
	ADCSRA &=~(1<<ADPS2);
     c34:	a6 e2       	ldi	r26, 0x26	; 38
     c36:	b0 e0       	ldi	r27, 0x00	; 0
     c38:	e6 e2       	ldi	r30, 0x26	; 38
     c3a:	f0 e0       	ldi	r31, 0x00	; 0
     c3c:	80 81       	ld	r24, Z
     c3e:	8b 7f       	andi	r24, 0xFB	; 251
     c40:	8c 93       	st	X, r24
     c42:	57 c0       	rjmp	.+174    	; 0xcf2 <AD_Init+0x1ac>
	break;
   case 16:
	ADCSRA &=~(1<<ADPS0);
     c44:	a6 e2       	ldi	r26, 0x26	; 38
     c46:	b0 e0       	ldi	r27, 0x00	; 0
     c48:	e6 e2       	ldi	r30, 0x26	; 38
     c4a:	f0 e0       	ldi	r31, 0x00	; 0
     c4c:	80 81       	ld	r24, Z
     c4e:	8e 7f       	andi	r24, 0xFE	; 254
     c50:	8c 93       	st	X, r24
	ADCSRA &=~(1<<ADPS1);
     c52:	a6 e2       	ldi	r26, 0x26	; 38
     c54:	b0 e0       	ldi	r27, 0x00	; 0
     c56:	e6 e2       	ldi	r30, 0x26	; 38
     c58:	f0 e0       	ldi	r31, 0x00	; 0
     c5a:	80 81       	ld	r24, Z
     c5c:	8d 7f       	andi	r24, 0xFD	; 253
     c5e:	8c 93       	st	X, r24
	ADCSRA |= (1<<ADPS2);
     c60:	a6 e2       	ldi	r26, 0x26	; 38
     c62:	b0 e0       	ldi	r27, 0x00	; 0
     c64:	e6 e2       	ldi	r30, 0x26	; 38
     c66:	f0 e0       	ldi	r31, 0x00	; 0
     c68:	80 81       	ld	r24, Z
     c6a:	84 60       	ori	r24, 0x04	; 4
     c6c:	8c 93       	st	X, r24
     c6e:	41 c0       	rjmp	.+130    	; 0xcf2 <AD_Init+0x1ac>
	break;
   case 32:
	ADCSRA |= (1<<ADPS0);
     c70:	a6 e2       	ldi	r26, 0x26	; 38
     c72:	b0 e0       	ldi	r27, 0x00	; 0
     c74:	e6 e2       	ldi	r30, 0x26	; 38
     c76:	f0 e0       	ldi	r31, 0x00	; 0
     c78:	80 81       	ld	r24, Z
     c7a:	81 60       	ori	r24, 0x01	; 1
     c7c:	8c 93       	st	X, r24
	ADCSRA &=~(1<<ADPS1);
     c7e:	a6 e2       	ldi	r26, 0x26	; 38
     c80:	b0 e0       	ldi	r27, 0x00	; 0
     c82:	e6 e2       	ldi	r30, 0x26	; 38
     c84:	f0 e0       	ldi	r31, 0x00	; 0
     c86:	80 81       	ld	r24, Z
     c88:	8d 7f       	andi	r24, 0xFD	; 253
     c8a:	8c 93       	st	X, r24
	ADCSRA |= (1<<ADPS2);
     c8c:	a6 e2       	ldi	r26, 0x26	; 38
     c8e:	b0 e0       	ldi	r27, 0x00	; 0
     c90:	e6 e2       	ldi	r30, 0x26	; 38
     c92:	f0 e0       	ldi	r31, 0x00	; 0
     c94:	80 81       	ld	r24, Z
     c96:	84 60       	ori	r24, 0x04	; 4
     c98:	8c 93       	st	X, r24
     c9a:	2b c0       	rjmp	.+86     	; 0xcf2 <AD_Init+0x1ac>
	break;
   case 64:
	ADCSRA &=~(1<<ADPS0);
     c9c:	a6 e2       	ldi	r26, 0x26	; 38
     c9e:	b0 e0       	ldi	r27, 0x00	; 0
     ca0:	e6 e2       	ldi	r30, 0x26	; 38
     ca2:	f0 e0       	ldi	r31, 0x00	; 0
     ca4:	80 81       	ld	r24, Z
     ca6:	8e 7f       	andi	r24, 0xFE	; 254
     ca8:	8c 93       	st	X, r24
	ADCSRA |= (1<<ADPS1);
     caa:	a6 e2       	ldi	r26, 0x26	; 38
     cac:	b0 e0       	ldi	r27, 0x00	; 0
     cae:	e6 e2       	ldi	r30, 0x26	; 38
     cb0:	f0 e0       	ldi	r31, 0x00	; 0
     cb2:	80 81       	ld	r24, Z
     cb4:	82 60       	ori	r24, 0x02	; 2
     cb6:	8c 93       	st	X, r24
	ADCSRA |= (1<<ADPS2);
     cb8:	a6 e2       	ldi	r26, 0x26	; 38
     cba:	b0 e0       	ldi	r27, 0x00	; 0
     cbc:	e6 e2       	ldi	r30, 0x26	; 38
     cbe:	f0 e0       	ldi	r31, 0x00	; 0
     cc0:	80 81       	ld	r24, Z
     cc2:	84 60       	ori	r24, 0x04	; 4
     cc4:	8c 93       	st	X, r24
     cc6:	15 c0       	rjmp	.+42     	; 0xcf2 <AD_Init+0x1ac>
	break;
   case 128:
	ADCSRA |= (1<<ADPS0);
     cc8:	a6 e2       	ldi	r26, 0x26	; 38
     cca:	b0 e0       	ldi	r27, 0x00	; 0
     ccc:	e6 e2       	ldi	r30, 0x26	; 38
     cce:	f0 e0       	ldi	r31, 0x00	; 0
     cd0:	80 81       	ld	r24, Z
     cd2:	81 60       	ori	r24, 0x01	; 1
     cd4:	8c 93       	st	X, r24
	ADCSRA |= (1<<ADPS1);
     cd6:	a6 e2       	ldi	r26, 0x26	; 38
     cd8:	b0 e0       	ldi	r27, 0x00	; 0
     cda:	e6 e2       	ldi	r30, 0x26	; 38
     cdc:	f0 e0       	ldi	r31, 0x00	; 0
     cde:	80 81       	ld	r24, Z
     ce0:	82 60       	ori	r24, 0x02	; 2
     ce2:	8c 93       	st	X, r24
	ADCSRA |= (1<<ADPS2);
     ce4:	a6 e2       	ldi	r26, 0x26	; 38
     ce6:	b0 e0       	ldi	r27, 0x00	; 0
     ce8:	e6 e2       	ldi	r30, 0x26	; 38
     cea:	f0 e0       	ldi	r31, 0x00	; 0
     cec:	80 81       	ld	r24, Z
     cee:	84 60       	ori	r24, 0x04	; 4
     cf0:	8c 93       	st	X, r24
	break;
}
switch(Vref)
     cf2:	89 81       	ldd	r24, Y+1	; 0x01
     cf4:	28 2f       	mov	r18, r24
     cf6:	30 e0       	ldi	r19, 0x00	; 0
     cf8:	3c 83       	std	Y+4, r19	; 0x04
     cfa:	2b 83       	std	Y+3, r18	; 0x03
     cfc:	8b 81       	ldd	r24, Y+3	; 0x03
     cfe:	9c 81       	ldd	r25, Y+4	; 0x04
     d00:	81 30       	cpi	r24, 0x01	; 1
     d02:	91 05       	cpc	r25, r1
     d04:	51 f0       	breq	.+20     	; 0xd1a <AD_Init+0x1d4>
     d06:	2b 81       	ldd	r18, Y+3	; 0x03
     d08:	3c 81       	ldd	r19, Y+4	; 0x04
     d0a:	22 30       	cpi	r18, 0x02	; 2
     d0c:	31 05       	cpc	r19, r1
     d0e:	19 f1       	breq	.+70     	; 0xd56 <AD_Init+0x210>
     d10:	8b 81       	ldd	r24, Y+3	; 0x03
     d12:	9c 81       	ldd	r25, Y+4	; 0x04
     d14:	00 97       	sbiw	r24, 0x00	; 0
     d16:	81 f0       	breq	.+32     	; 0xd38 <AD_Init+0x1f2>
     d18:	2c c0       	rjmp	.+88     	; 0xd72 <AD_Init+0x22c>
{
   case VREF :
	   ADMUX &=~(1<<REFS0);
     d1a:	a7 e2       	ldi	r26, 0x27	; 39
     d1c:	b0 e0       	ldi	r27, 0x00	; 0
     d1e:	e7 e2       	ldi	r30, 0x27	; 39
     d20:	f0 e0       	ldi	r31, 0x00	; 0
     d22:	80 81       	ld	r24, Z
     d24:	8f 7b       	andi	r24, 0xBF	; 191
     d26:	8c 93       	st	X, r24
	   ADMUX &=~(1<<REFS1);
     d28:	a7 e2       	ldi	r26, 0x27	; 39
     d2a:	b0 e0       	ldi	r27, 0x00	; 0
     d2c:	e7 e2       	ldi	r30, 0x27	; 39
     d2e:	f0 e0       	ldi	r31, 0x00	; 0
     d30:	80 81       	ld	r24, Z
     d32:	8f 77       	andi	r24, 0x7F	; 127
     d34:	8c 93       	st	X, r24
     d36:	1d c0       	rjmp	.+58     	; 0xd72 <AD_Init+0x22c>
	   break;
   case AVCC :
 	   ADMUX |= (1<<REFS0);
     d38:	a7 e2       	ldi	r26, 0x27	; 39
     d3a:	b0 e0       	ldi	r27, 0x00	; 0
     d3c:	e7 e2       	ldi	r30, 0x27	; 39
     d3e:	f0 e0       	ldi	r31, 0x00	; 0
     d40:	80 81       	ld	r24, Z
     d42:	80 64       	ori	r24, 0x40	; 64
     d44:	8c 93       	st	X, r24
 	   ADMUX &=~(1<<REFS1);
     d46:	a7 e2       	ldi	r26, 0x27	; 39
     d48:	b0 e0       	ldi	r27, 0x00	; 0
     d4a:	e7 e2       	ldi	r30, 0x27	; 39
     d4c:	f0 e0       	ldi	r31, 0x00	; 0
     d4e:	80 81       	ld	r24, Z
     d50:	8f 77       	andi	r24, 0x7F	; 127
     d52:	8c 93       	st	X, r24
     d54:	0e c0       	rjmp	.+28     	; 0xd72 <AD_Init+0x22c>
 	   break;
   case INTV :
	   ADMUX |= (1<<REFS0);
     d56:	a7 e2       	ldi	r26, 0x27	; 39
     d58:	b0 e0       	ldi	r27, 0x00	; 0
     d5a:	e7 e2       	ldi	r30, 0x27	; 39
     d5c:	f0 e0       	ldi	r31, 0x00	; 0
     d5e:	80 81       	ld	r24, Z
     d60:	80 64       	ori	r24, 0x40	; 64
     d62:	8c 93       	st	X, r24
	   ADMUX |= (1<<REFS1);
     d64:	a7 e2       	ldi	r26, 0x27	; 39
     d66:	b0 e0       	ldi	r27, 0x00	; 0
     d68:	e7 e2       	ldi	r30, 0x27	; 39
     d6a:	f0 e0       	ldi	r31, 0x00	; 0
     d6c:	80 81       	ld	r24, Z
     d6e:	80 68       	ori	r24, 0x80	; 128
     d70:	8c 93       	st	X, r24
 	   break;
}

   ADCSRA |= (1<<ADEN);
     d72:	a6 e2       	ldi	r26, 0x26	; 38
     d74:	b0 e0       	ldi	r27, 0x00	; 0
     d76:	e6 e2       	ldi	r30, 0x26	; 38
     d78:	f0 e0       	ldi	r31, 0x00	; 0
     d7a:	80 81       	ld	r24, Z
     d7c:	80 68       	ori	r24, 0x80	; 128
     d7e:	8c 93       	st	X, r24
}
     d80:	26 96       	adiw	r28, 0x06	; 6
     d82:	0f b6       	in	r0, 0x3f	; 63
     d84:	f8 94       	cli
     d86:	de bf       	out	0x3e, r29	; 62
     d88:	0f be       	out	0x3f, r0	; 63
     d8a:	cd bf       	out	0x3d, r28	; 61
     d8c:	cf 91       	pop	r28
     d8e:	df 91       	pop	r29
     d90:	08 95       	ret

00000d92 <AD_Start_Conversion>:
void AD_Start_Conversion()
{
     d92:	df 93       	push	r29
     d94:	cf 93       	push	r28
     d96:	cd b7       	in	r28, 0x3d	; 61
     d98:	de b7       	in	r29, 0x3e	; 62
	ADCSRA |= (1<<ADSC);
     d9a:	a6 e2       	ldi	r26, 0x26	; 38
     d9c:	b0 e0       	ldi	r27, 0x00	; 0
     d9e:	e6 e2       	ldi	r30, 0x26	; 38
     da0:	f0 e0       	ldi	r31, 0x00	; 0
     da2:	80 81       	ld	r24, Z
     da4:	80 64       	ori	r24, 0x40	; 64
     da6:	8c 93       	st	X, r24
}
     da8:	cf 91       	pop	r28
     daa:	df 91       	pop	r29
     dac:	08 95       	ret

00000dae <Auto_Trigger_Enable>:
void Auto_Trigger_Enable(u8 Mode)
{
     dae:	df 93       	push	r29
     db0:	cf 93       	push	r28
     db2:	0f 92       	push	r0
     db4:	cd b7       	in	r28, 0x3d	; 61
     db6:	de b7       	in	r29, 0x3e	; 62
     db8:	89 83       	std	Y+1, r24	; 0x01
	if(Mode<=7)
     dba:	89 81       	ldd	r24, Y+1	; 0x01
     dbc:	88 30       	cpi	r24, 0x08	; 8
     dbe:	d0 f4       	brcc	.+52     	; 0xdf4 <Auto_Trigger_Enable+0x46>
	{
	SFIOR &= 0x1F;
     dc0:	a0 e5       	ldi	r26, 0x50	; 80
     dc2:	b0 e0       	ldi	r27, 0x00	; 0
     dc4:	e0 e5       	ldi	r30, 0x50	; 80
     dc6:	f0 e0       	ldi	r31, 0x00	; 0
     dc8:	80 81       	ld	r24, Z
     dca:	8f 71       	andi	r24, 0x1F	; 31
     dcc:	8c 93       	st	X, r24
	SFIOR |= (Mode<<5);
     dce:	a0 e5       	ldi	r26, 0x50	; 80
     dd0:	b0 e0       	ldi	r27, 0x00	; 0
     dd2:	e0 e5       	ldi	r30, 0x50	; 80
     dd4:	f0 e0       	ldi	r31, 0x00	; 0
     dd6:	80 81       	ld	r24, Z
     dd8:	28 2f       	mov	r18, r24
     dda:	89 81       	ldd	r24, Y+1	; 0x01
     ddc:	88 2f       	mov	r24, r24
     dde:	90 e0       	ldi	r25, 0x00	; 0
     de0:	88 0f       	add	r24, r24
     de2:	99 1f       	adc	r25, r25
     de4:	82 95       	swap	r24
     de6:	92 95       	swap	r25
     de8:	90 7f       	andi	r25, 0xF0	; 240
     dea:	98 27       	eor	r25, r24
     dec:	80 7f       	andi	r24, 0xF0	; 240
     dee:	98 27       	eor	r25, r24
     df0:	82 2b       	or	r24, r18
     df2:	8c 93       	st	X, r24
	}
	ADCSRA |= (1<<ADATE);
     df4:	a6 e2       	ldi	r26, 0x26	; 38
     df6:	b0 e0       	ldi	r27, 0x00	; 0
     df8:	e6 e2       	ldi	r30, 0x26	; 38
     dfa:	f0 e0       	ldi	r31, 0x00	; 0
     dfc:	80 81       	ld	r24, Z
     dfe:	80 62       	ori	r24, 0x20	; 32
     e00:	8c 93       	st	X, r24
}
     e02:	0f 90       	pop	r0
     e04:	cf 91       	pop	r28
     e06:	df 91       	pop	r29
     e08:	08 95       	ret

00000e0a <Analog_Select_Channel>:
void Analog_Select_Channel(u8 Channel)
{
     e0a:	df 93       	push	r29
     e0c:	cf 93       	push	r28
     e0e:	0f 92       	push	r0
     e10:	cd b7       	in	r28, 0x3d	; 61
     e12:	de b7       	in	r29, 0x3e	; 62
     e14:	89 83       	std	Y+1, r24	; 0x01
	if (Channel<=31)
     e16:	89 81       	ldd	r24, Y+1	; 0x01
     e18:	80 32       	cpi	r24, 0x20	; 32
     e1a:	78 f4       	brcc	.+30     	; 0xe3a <Analog_Select_Channel+0x30>
	{
		ADMUX &=~0x1F;
     e1c:	a7 e2       	ldi	r26, 0x27	; 39
     e1e:	b0 e0       	ldi	r27, 0x00	; 0
     e20:	e7 e2       	ldi	r30, 0x27	; 39
     e22:	f0 e0       	ldi	r31, 0x00	; 0
     e24:	80 81       	ld	r24, Z
     e26:	80 7e       	andi	r24, 0xE0	; 224
     e28:	8c 93       	st	X, r24
		ADMUX |= Channel;
     e2a:	a7 e2       	ldi	r26, 0x27	; 39
     e2c:	b0 e0       	ldi	r27, 0x00	; 0
     e2e:	e7 e2       	ldi	r30, 0x27	; 39
     e30:	f0 e0       	ldi	r31, 0x00	; 0
     e32:	90 81       	ld	r25, Z
     e34:	89 81       	ldd	r24, Y+1	; 0x01
     e36:	89 2b       	or	r24, r25
     e38:	8c 93       	st	X, r24
	}

}
     e3a:	0f 90       	pop	r0
     e3c:	cf 91       	pop	r28
     e3e:	df 91       	pop	r29
     e40:	08 95       	ret

00000e42 <AD_Read_High>:
u8 AD_Read_High(u8 Direction)
{
     e42:	df 93       	push	r29
     e44:	cf 93       	push	r28
     e46:	00 d0       	rcall	.+0      	; 0xe48 <AD_Read_High+0x6>
     e48:	00 d0       	rcall	.+0      	; 0xe4a <AD_Read_High+0x8>
     e4a:	cd b7       	in	r28, 0x3d	; 61
     e4c:	de b7       	in	r29, 0x3e	; 62
     e4e:	8a 83       	std	Y+2, r24	; 0x02
	u8 Reading;
 switch(Direction)
     e50:	8a 81       	ldd	r24, Y+2	; 0x02
     e52:	28 2f       	mov	r18, r24
     e54:	30 e0       	ldi	r19, 0x00	; 0
     e56:	3c 83       	std	Y+4, r19	; 0x04
     e58:	2b 83       	std	Y+3, r18	; 0x03
     e5a:	8b 81       	ldd	r24, Y+3	; 0x03
     e5c:	9c 81       	ldd	r25, Y+4	; 0x04
     e5e:	00 97       	sbiw	r24, 0x00	; 0
     e60:	f1 f0       	breq	.+60     	; 0xe9e <AD_Read_High+0x5c>
     e62:	2b 81       	ldd	r18, Y+3	; 0x03
     e64:	3c 81       	ldd	r19, Y+4	; 0x04
     e66:	21 30       	cpi	r18, 0x01	; 1
     e68:	31 05       	cpc	r19, r1
     e6a:	21 f5       	brne	.+72     	; 0xeb4 <AD_Read_High+0x72>
   {
 case RIGHT_READING:
	 Reading =(ADCL>>2);
     e6c:	e4 e2       	ldi	r30, 0x24	; 36
     e6e:	f0 e0       	ldi	r31, 0x00	; 0
     e70:	80 81       	ld	r24, Z
     e72:	86 95       	lsr	r24
     e74:	86 95       	lsr	r24
     e76:	89 83       	std	Y+1, r24	; 0x01
	 Reading|=(ADCH<<6);
     e78:	e5 e2       	ldi	r30, 0x25	; 37
     e7a:	f0 e0       	ldi	r31, 0x00	; 0
     e7c:	80 81       	ld	r24, Z
     e7e:	88 2f       	mov	r24, r24
     e80:	90 e0       	ldi	r25, 0x00	; 0
     e82:	00 24       	eor	r0, r0
     e84:	96 95       	lsr	r25
     e86:	87 95       	ror	r24
     e88:	07 94       	ror	r0
     e8a:	96 95       	lsr	r25
     e8c:	87 95       	ror	r24
     e8e:	07 94       	ror	r0
     e90:	98 2f       	mov	r25, r24
     e92:	80 2d       	mov	r24, r0
     e94:	98 2f       	mov	r25, r24
     e96:	89 81       	ldd	r24, Y+1	; 0x01
     e98:	89 2b       	or	r24, r25
     e9a:	89 83       	std	Y+1, r24	; 0x01
     e9c:	0b c0       	rjmp	.+22     	; 0xeb4 <AD_Read_High+0x72>
	 break;
 case LEFT_READING:
	 ADMUX |=(1<<ADLAR);
     e9e:	a7 e2       	ldi	r26, 0x27	; 39
     ea0:	b0 e0       	ldi	r27, 0x00	; 0
     ea2:	e7 e2       	ldi	r30, 0x27	; 39
     ea4:	f0 e0       	ldi	r31, 0x00	; 0
     ea6:	80 81       	ld	r24, Z
     ea8:	80 62       	ori	r24, 0x20	; 32
     eaa:	8c 93       	st	X, r24
	 Reading=ADCH;
     eac:	e5 e2       	ldi	r30, 0x25	; 37
     eae:	f0 e0       	ldi	r31, 0x00	; 0
     eb0:	80 81       	ld	r24, Z
     eb2:	89 83       	std	Y+1, r24	; 0x01
	 break;
 default:
	  break;
   }
 return Reading;
     eb4:	89 81       	ldd	r24, Y+1	; 0x01
}
     eb6:	0f 90       	pop	r0
     eb8:	0f 90       	pop	r0
     eba:	0f 90       	pop	r0
     ebc:	0f 90       	pop	r0
     ebe:	cf 91       	pop	r28
     ec0:	df 91       	pop	r29
     ec2:	08 95       	ret

00000ec4 <ADC_Polling>:
void ADC_Polling()
{
     ec4:	df 93       	push	r29
     ec6:	cf 93       	push	r28
     ec8:	cd b7       	in	r28, 0x3d	; 61
     eca:	de b7       	in	r29, 0x3e	; 62
	while (!(ADCSRA<<4)&1);
     ecc:	e6 e2       	ldi	r30, 0x26	; 38
     ece:	f0 e0       	ldi	r31, 0x00	; 0
     ed0:	80 81       	ld	r24, Z
     ed2:	88 2f       	mov	r24, r24
     ed4:	90 e0       	ldi	r25, 0x00	; 0
     ed6:	82 95       	swap	r24
     ed8:	92 95       	swap	r25
     eda:	90 7f       	andi	r25, 0xF0	; 240
     edc:	98 27       	eor	r25, r24
     ede:	80 7f       	andi	r24, 0xF0	; 240
     ee0:	98 27       	eor	r25, r24
     ee2:	00 97       	sbiw	r24, 0x00	; 0
     ee4:	99 f3       	breq	.-26     	; 0xecc <ADC_Polling+0x8>
		  ADCSRA |=(1<<4);
     ee6:	a6 e2       	ldi	r26, 0x26	; 38
     ee8:	b0 e0       	ldi	r27, 0x00	; 0
     eea:	e6 e2       	ldi	r30, 0x26	; 38
     eec:	f0 e0       	ldi	r31, 0x00	; 0
     eee:	80 81       	ld	r24, Z
     ef0:	80 61       	ori	r24, 0x10	; 16
     ef2:	8c 93       	st	X, r24
}
     ef4:	cf 91       	pop	r28
     ef6:	df 91       	pop	r29
     ef8:	08 95       	ret

00000efa <ADC_IE>:
void ADC_IE()
{
     efa:	df 93       	push	r29
     efc:	cf 93       	push	r28
     efe:	cd b7       	in	r28, 0x3d	; 61
     f00:	de b7       	in	r29, 0x3e	; 62
	ADCSRA |=(1<<ADIE);
     f02:	a6 e2       	ldi	r26, 0x26	; 38
     f04:	b0 e0       	ldi	r27, 0x00	; 0
     f06:	e6 e2       	ldi	r30, 0x26	; 38
     f08:	f0 e0       	ldi	r31, 0x00	; 0
     f0a:	80 81       	ld	r24, Z
     f0c:	88 60       	ori	r24, 0x08	; 8
     f0e:	8c 93       	st	X, r24
}
     f10:	cf 91       	pop	r28
     f12:	df 91       	pop	r29
     f14:	08 95       	ret

00000f16 <DIO_enuInit>:
#include "AVR_REG.h"
#include "DIO_config.h"


ES_t DIO_enuInit(void)
{
     f16:	df 93       	push	r29
     f18:	cf 93       	push	r28
     f1a:	0f 92       	push	r0
     f1c:	cd b7       	in	r28, 0x3d	; 61
     f1e:	de b7       	in	r29, 0x3e	; 62
	ES_t Local_enuErrorState = ES_NOK;
     f20:	19 82       	std	Y+1, r1	; 0x01

	DDRA=CONC(DIO_u8PA7_DIR,DIO_u8PA6_DIR,DIO_u8PA5_DIR,DIO_u8PA4_DIR,DIO_u8PA3_DIR,DIO_u8PA2_DIR,DIO_u8PA1_DIR,DIO_u8PA0_DIR);
     f22:	ea e3       	ldi	r30, 0x3A	; 58
     f24:	f0 e0       	ldi	r31, 0x00	; 0
     f26:	81 eb       	ldi	r24, 0xB1	; 177
     f28:	80 83       	st	Z, r24

	PORTA=CONC(DIO_u8PA7_VALUE,DIO_u8PA6_VALUE,DIO_u8PA5_VALUE,DIO_u8PA4_VALUE,DIO_u8PA3_VALUE,DIO_u8PA2_VALUE,DIO_u8PA1_VALUE,DIO_u8PA0_VALUE);
     f2a:	eb e3       	ldi	r30, 0x3B	; 59
     f2c:	f0 e0       	ldi	r31, 0x00	; 0
     f2e:	86 e1       	ldi	r24, 0x16	; 22
     f30:	80 83       	st	Z, r24

	return Local_enuErrorState;
     f32:	89 81       	ldd	r24, Y+1	; 0x01
}
     f34:	0f 90       	pop	r0
     f36:	cf 91       	pop	r28
     f38:	df 91       	pop	r29
     f3a:	08 95       	ret

00000f3c <DIO_enuSetPinDirection>:

ES_t DIO_enuSetPinDirection(u8 Copy_u8PortID , u8 Copy_u8PinID , u8 Copy_u8Direction)
{
     f3c:	df 93       	push	r29
     f3e:	cf 93       	push	r28
     f40:	00 d0       	rcall	.+0      	; 0xf42 <DIO_enuSetPinDirection+0x6>
     f42:	00 d0       	rcall	.+0      	; 0xf44 <DIO_enuSetPinDirection+0x8>
     f44:	00 d0       	rcall	.+0      	; 0xf46 <DIO_enuSetPinDirection+0xa>
     f46:	cd b7       	in	r28, 0x3d	; 61
     f48:	de b7       	in	r29, 0x3e	; 62
     f4a:	8a 83       	std	Y+2, r24	; 0x02
     f4c:	6b 83       	std	Y+3, r22	; 0x03
     f4e:	4c 83       	std	Y+4, r20	; 0x04
	ES_t Local_enuErrorState = ES_NOK;
     f50:	19 82       	std	Y+1, r1	; 0x01

	if (Copy_u8PortID <= DIO_u8GROUP_D
     f52:	8a 81       	ldd	r24, Y+2	; 0x02
     f54:	84 30       	cpi	r24, 0x04	; 4
     f56:	08 f0       	brcs	.+2      	; 0xf5a <DIO_enuSetPinDirection+0x1e>
     f58:	d1 c0       	rjmp	.+418    	; 0x10fc <DIO_enuSetPinDirection+0x1c0>
     f5a:	8b 81       	ldd	r24, Y+3	; 0x03
     f5c:	88 30       	cpi	r24, 0x08	; 8
     f5e:	08 f0       	brcs	.+2      	; 0xf62 <DIO_enuSetPinDirection+0x26>
     f60:	cd c0       	rjmp	.+410    	; 0x10fc <DIO_enuSetPinDirection+0x1c0>
     f62:	8c 81       	ldd	r24, Y+4	; 0x04
     f64:	82 30       	cpi	r24, 0x02	; 2
     f66:	08 f0       	brcs	.+2      	; 0xf6a <DIO_enuSetPinDirection+0x2e>
     f68:	c9 c0       	rjmp	.+402    	; 0x10fc <DIO_enuSetPinDirection+0x1c0>
			&& Copy_u8PinID <= DIO_u8PIN7
			&& Copy_u8Direction <= DIO_u8OUTPUT)
	{
		switch (Copy_u8PortID)
     f6a:	8a 81       	ldd	r24, Y+2	; 0x02
     f6c:	28 2f       	mov	r18, r24
     f6e:	30 e0       	ldi	r19, 0x00	; 0
     f70:	3e 83       	std	Y+6, r19	; 0x06
     f72:	2d 83       	std	Y+5, r18	; 0x05
     f74:	6d 81       	ldd	r22, Y+5	; 0x05
     f76:	7e 81       	ldd	r23, Y+6	; 0x06
     f78:	61 30       	cpi	r22, 0x01	; 1
     f7a:	71 05       	cpc	r23, r1
     f7c:	09 f4       	brne	.+2      	; 0xf80 <DIO_enuSetPinDirection+0x44>
     f7e:	41 c0       	rjmp	.+130    	; 0x1002 <DIO_enuSetPinDirection+0xc6>
     f80:	8d 81       	ldd	r24, Y+5	; 0x05
     f82:	9e 81       	ldd	r25, Y+6	; 0x06
     f84:	82 30       	cpi	r24, 0x02	; 2
     f86:	91 05       	cpc	r25, r1
     f88:	34 f4       	brge	.+12     	; 0xf96 <DIO_enuSetPinDirection+0x5a>
     f8a:	2d 81       	ldd	r18, Y+5	; 0x05
     f8c:	3e 81       	ldd	r19, Y+6	; 0x06
     f8e:	21 15       	cp	r18, r1
     f90:	31 05       	cpc	r19, r1
     f92:	71 f0       	breq	.+28     	; 0xfb0 <DIO_enuSetPinDirection+0x74>
     f94:	b0 c0       	rjmp	.+352    	; 0x10f6 <DIO_enuSetPinDirection+0x1ba>
     f96:	6d 81       	ldd	r22, Y+5	; 0x05
     f98:	7e 81       	ldd	r23, Y+6	; 0x06
     f9a:	62 30       	cpi	r22, 0x02	; 2
     f9c:	71 05       	cpc	r23, r1
     f9e:	09 f4       	brne	.+2      	; 0xfa2 <DIO_enuSetPinDirection+0x66>
     fa0:	59 c0       	rjmp	.+178    	; 0x1054 <DIO_enuSetPinDirection+0x118>
     fa2:	8d 81       	ldd	r24, Y+5	; 0x05
     fa4:	9e 81       	ldd	r25, Y+6	; 0x06
     fa6:	83 30       	cpi	r24, 0x03	; 3
     fa8:	91 05       	cpc	r25, r1
     faa:	09 f4       	brne	.+2      	; 0xfae <DIO_enuSetPinDirection+0x72>
     fac:	7c c0       	rjmp	.+248    	; 0x10a6 <DIO_enuSetPinDirection+0x16a>
     fae:	a3 c0       	rjmp	.+326    	; 0x10f6 <DIO_enuSetPinDirection+0x1ba>
		{
		case DIO_u8GROUP_A:

			DDRA &=~(DIO_MASK_BIT<<Copy_u8PinID);
     fb0:	aa e3       	ldi	r26, 0x3A	; 58
     fb2:	b0 e0       	ldi	r27, 0x00	; 0
     fb4:	ea e3       	ldi	r30, 0x3A	; 58
     fb6:	f0 e0       	ldi	r31, 0x00	; 0
     fb8:	80 81       	ld	r24, Z
     fba:	48 2f       	mov	r20, r24
     fbc:	8b 81       	ldd	r24, Y+3	; 0x03
     fbe:	28 2f       	mov	r18, r24
     fc0:	30 e0       	ldi	r19, 0x00	; 0
     fc2:	81 e0       	ldi	r24, 0x01	; 1
     fc4:	90 e0       	ldi	r25, 0x00	; 0
     fc6:	02 c0       	rjmp	.+4      	; 0xfcc <DIO_enuSetPinDirection+0x90>
     fc8:	88 0f       	add	r24, r24
     fca:	99 1f       	adc	r25, r25
     fcc:	2a 95       	dec	r18
     fce:	e2 f7       	brpl	.-8      	; 0xfc8 <DIO_enuSetPinDirection+0x8c>
     fd0:	80 95       	com	r24
     fd2:	84 23       	and	r24, r20
     fd4:	8c 93       	st	X, r24
			DDRA |= (Copy_u8Direction<<Copy_u8PinID);
     fd6:	aa e3       	ldi	r26, 0x3A	; 58
     fd8:	b0 e0       	ldi	r27, 0x00	; 0
     fda:	ea e3       	ldi	r30, 0x3A	; 58
     fdc:	f0 e0       	ldi	r31, 0x00	; 0
     fde:	80 81       	ld	r24, Z
     fe0:	48 2f       	mov	r20, r24
     fe2:	8c 81       	ldd	r24, Y+4	; 0x04
     fe4:	28 2f       	mov	r18, r24
     fe6:	30 e0       	ldi	r19, 0x00	; 0
     fe8:	8b 81       	ldd	r24, Y+3	; 0x03
     fea:	88 2f       	mov	r24, r24
     fec:	90 e0       	ldi	r25, 0x00	; 0
     fee:	b9 01       	movw	r22, r18
     ff0:	02 c0       	rjmp	.+4      	; 0xff6 <DIO_enuSetPinDirection+0xba>
     ff2:	66 0f       	add	r22, r22
     ff4:	77 1f       	adc	r23, r23
     ff6:	8a 95       	dec	r24
     ff8:	e2 f7       	brpl	.-8      	; 0xff2 <DIO_enuSetPinDirection+0xb6>
     ffa:	cb 01       	movw	r24, r22
     ffc:	84 2b       	or	r24, r20
     ffe:	8c 93       	st	X, r24
    1000:	7a c0       	rjmp	.+244    	; 0x10f6 <DIO_enuSetPinDirection+0x1ba>

			break;
		case DIO_u8GROUP_B:

			DDRB &=~(DIO_MASK_BIT<<Copy_u8PinID);
    1002:	a7 e3       	ldi	r26, 0x37	; 55
    1004:	b0 e0       	ldi	r27, 0x00	; 0
    1006:	e7 e3       	ldi	r30, 0x37	; 55
    1008:	f0 e0       	ldi	r31, 0x00	; 0
    100a:	80 81       	ld	r24, Z
    100c:	48 2f       	mov	r20, r24
    100e:	8b 81       	ldd	r24, Y+3	; 0x03
    1010:	28 2f       	mov	r18, r24
    1012:	30 e0       	ldi	r19, 0x00	; 0
    1014:	81 e0       	ldi	r24, 0x01	; 1
    1016:	90 e0       	ldi	r25, 0x00	; 0
    1018:	02 c0       	rjmp	.+4      	; 0x101e <DIO_enuSetPinDirection+0xe2>
    101a:	88 0f       	add	r24, r24
    101c:	99 1f       	adc	r25, r25
    101e:	2a 95       	dec	r18
    1020:	e2 f7       	brpl	.-8      	; 0x101a <DIO_enuSetPinDirection+0xde>
    1022:	80 95       	com	r24
    1024:	84 23       	and	r24, r20
    1026:	8c 93       	st	X, r24
			DDRB |= (Copy_u8Direction<<Copy_u8PinID);
    1028:	a7 e3       	ldi	r26, 0x37	; 55
    102a:	b0 e0       	ldi	r27, 0x00	; 0
    102c:	e7 e3       	ldi	r30, 0x37	; 55
    102e:	f0 e0       	ldi	r31, 0x00	; 0
    1030:	80 81       	ld	r24, Z
    1032:	48 2f       	mov	r20, r24
    1034:	8c 81       	ldd	r24, Y+4	; 0x04
    1036:	28 2f       	mov	r18, r24
    1038:	30 e0       	ldi	r19, 0x00	; 0
    103a:	8b 81       	ldd	r24, Y+3	; 0x03
    103c:	88 2f       	mov	r24, r24
    103e:	90 e0       	ldi	r25, 0x00	; 0
    1040:	b9 01       	movw	r22, r18
    1042:	02 c0       	rjmp	.+4      	; 0x1048 <DIO_enuSetPinDirection+0x10c>
    1044:	66 0f       	add	r22, r22
    1046:	77 1f       	adc	r23, r23
    1048:	8a 95       	dec	r24
    104a:	e2 f7       	brpl	.-8      	; 0x1044 <DIO_enuSetPinDirection+0x108>
    104c:	cb 01       	movw	r24, r22
    104e:	84 2b       	or	r24, r20
    1050:	8c 93       	st	X, r24
    1052:	51 c0       	rjmp	.+162    	; 0x10f6 <DIO_enuSetPinDirection+0x1ba>

			break;
		case DIO_u8GROUP_C:

			DDRC &=~(DIO_MASK_BIT<<Copy_u8PinID);
    1054:	a4 e3       	ldi	r26, 0x34	; 52
    1056:	b0 e0       	ldi	r27, 0x00	; 0
    1058:	e4 e3       	ldi	r30, 0x34	; 52
    105a:	f0 e0       	ldi	r31, 0x00	; 0
    105c:	80 81       	ld	r24, Z
    105e:	48 2f       	mov	r20, r24
    1060:	8b 81       	ldd	r24, Y+3	; 0x03
    1062:	28 2f       	mov	r18, r24
    1064:	30 e0       	ldi	r19, 0x00	; 0
    1066:	81 e0       	ldi	r24, 0x01	; 1
    1068:	90 e0       	ldi	r25, 0x00	; 0
    106a:	02 c0       	rjmp	.+4      	; 0x1070 <DIO_enuSetPinDirection+0x134>
    106c:	88 0f       	add	r24, r24
    106e:	99 1f       	adc	r25, r25
    1070:	2a 95       	dec	r18
    1072:	e2 f7       	brpl	.-8      	; 0x106c <DIO_enuSetPinDirection+0x130>
    1074:	80 95       	com	r24
    1076:	84 23       	and	r24, r20
    1078:	8c 93       	st	X, r24
			DDRC |= (Copy_u8Direction<<Copy_u8PinID);
    107a:	a4 e3       	ldi	r26, 0x34	; 52
    107c:	b0 e0       	ldi	r27, 0x00	; 0
    107e:	e4 e3       	ldi	r30, 0x34	; 52
    1080:	f0 e0       	ldi	r31, 0x00	; 0
    1082:	80 81       	ld	r24, Z
    1084:	48 2f       	mov	r20, r24
    1086:	8c 81       	ldd	r24, Y+4	; 0x04
    1088:	28 2f       	mov	r18, r24
    108a:	30 e0       	ldi	r19, 0x00	; 0
    108c:	8b 81       	ldd	r24, Y+3	; 0x03
    108e:	88 2f       	mov	r24, r24
    1090:	90 e0       	ldi	r25, 0x00	; 0
    1092:	b9 01       	movw	r22, r18
    1094:	02 c0       	rjmp	.+4      	; 0x109a <DIO_enuSetPinDirection+0x15e>
    1096:	66 0f       	add	r22, r22
    1098:	77 1f       	adc	r23, r23
    109a:	8a 95       	dec	r24
    109c:	e2 f7       	brpl	.-8      	; 0x1096 <DIO_enuSetPinDirection+0x15a>
    109e:	cb 01       	movw	r24, r22
    10a0:	84 2b       	or	r24, r20
    10a2:	8c 93       	st	X, r24
    10a4:	28 c0       	rjmp	.+80     	; 0x10f6 <DIO_enuSetPinDirection+0x1ba>

			break;
		case DIO_u8GROUP_D:

			DDRD &=~(DIO_MASK_BIT<<Copy_u8PinID);
    10a6:	a1 e3       	ldi	r26, 0x31	; 49
    10a8:	b0 e0       	ldi	r27, 0x00	; 0
    10aa:	e1 e3       	ldi	r30, 0x31	; 49
    10ac:	f0 e0       	ldi	r31, 0x00	; 0
    10ae:	80 81       	ld	r24, Z
    10b0:	48 2f       	mov	r20, r24
    10b2:	8b 81       	ldd	r24, Y+3	; 0x03
    10b4:	28 2f       	mov	r18, r24
    10b6:	30 e0       	ldi	r19, 0x00	; 0
    10b8:	81 e0       	ldi	r24, 0x01	; 1
    10ba:	90 e0       	ldi	r25, 0x00	; 0
    10bc:	02 c0       	rjmp	.+4      	; 0x10c2 <DIO_enuSetPinDirection+0x186>
    10be:	88 0f       	add	r24, r24
    10c0:	99 1f       	adc	r25, r25
    10c2:	2a 95       	dec	r18
    10c4:	e2 f7       	brpl	.-8      	; 0x10be <DIO_enuSetPinDirection+0x182>
    10c6:	80 95       	com	r24
    10c8:	84 23       	and	r24, r20
    10ca:	8c 93       	st	X, r24
			DDRD |= (Copy_u8Direction<<Copy_u8PinID);
    10cc:	a1 e3       	ldi	r26, 0x31	; 49
    10ce:	b0 e0       	ldi	r27, 0x00	; 0
    10d0:	e1 e3       	ldi	r30, 0x31	; 49
    10d2:	f0 e0       	ldi	r31, 0x00	; 0
    10d4:	80 81       	ld	r24, Z
    10d6:	48 2f       	mov	r20, r24
    10d8:	8c 81       	ldd	r24, Y+4	; 0x04
    10da:	28 2f       	mov	r18, r24
    10dc:	30 e0       	ldi	r19, 0x00	; 0
    10de:	8b 81       	ldd	r24, Y+3	; 0x03
    10e0:	88 2f       	mov	r24, r24
    10e2:	90 e0       	ldi	r25, 0x00	; 0
    10e4:	b9 01       	movw	r22, r18
    10e6:	02 c0       	rjmp	.+4      	; 0x10ec <DIO_enuSetPinDirection+0x1b0>
    10e8:	66 0f       	add	r22, r22
    10ea:	77 1f       	adc	r23, r23
    10ec:	8a 95       	dec	r24
    10ee:	e2 f7       	brpl	.-8      	; 0x10e8 <DIO_enuSetPinDirection+0x1ac>
    10f0:	cb 01       	movw	r24, r22
    10f2:	84 2b       	or	r24, r20
    10f4:	8c 93       	st	X, r24

			break;
		}
		Local_enuErrorState = ES_OK;
    10f6:	81 e0       	ldi	r24, 0x01	; 1
    10f8:	89 83       	std	Y+1, r24	; 0x01
    10fa:	02 c0       	rjmp	.+4      	; 0x1100 <DIO_enuSetPinDirection+0x1c4>
	}
	else
	{
		Local_enuErrorState = ES_OUT_OF_RANGE;
    10fc:	82 e0       	ldi	r24, 0x02	; 2
    10fe:	89 83       	std	Y+1, r24	; 0x01
	}

	return Local_enuErrorState;
    1100:	89 81       	ldd	r24, Y+1	; 0x01
}
    1102:	26 96       	adiw	r28, 0x06	; 6
    1104:	0f b6       	in	r0, 0x3f	; 63
    1106:	f8 94       	cli
    1108:	de bf       	out	0x3e, r29	; 62
    110a:	0f be       	out	0x3f, r0	; 63
    110c:	cd bf       	out	0x3d, r28	; 61
    110e:	cf 91       	pop	r28
    1110:	df 91       	pop	r29
    1112:	08 95       	ret

00001114 <DIO_enuSetPinValue>:

ES_t DIO_enuSetPinValue(u8 Copy_u8PortID , u8 Copy_u8PinID , u8 Copy_u8Value)
{
    1114:	df 93       	push	r29
    1116:	cf 93       	push	r28
    1118:	00 d0       	rcall	.+0      	; 0x111a <DIO_enuSetPinValue+0x6>
    111a:	00 d0       	rcall	.+0      	; 0x111c <DIO_enuSetPinValue+0x8>
    111c:	00 d0       	rcall	.+0      	; 0x111e <DIO_enuSetPinValue+0xa>
    111e:	cd b7       	in	r28, 0x3d	; 61
    1120:	de b7       	in	r29, 0x3e	; 62
    1122:	8a 83       	std	Y+2, r24	; 0x02
    1124:	6b 83       	std	Y+3, r22	; 0x03
    1126:	4c 83       	std	Y+4, r20	; 0x04
	ES_t Local_enuErrorState = ES_NOK;
    1128:	19 82       	std	Y+1, r1	; 0x01

	if (Copy_u8PortID <= DIO_u8GROUP_D
    112a:	8a 81       	ldd	r24, Y+2	; 0x02
    112c:	84 30       	cpi	r24, 0x04	; 4
    112e:	08 f0       	brcs	.+2      	; 0x1132 <DIO_enuSetPinValue+0x1e>
    1130:	d4 c0       	rjmp	.+424    	; 0x12da <DIO_enuSetPinValue+0x1c6>
    1132:	8b 81       	ldd	r24, Y+3	; 0x03
    1134:	88 30       	cpi	r24, 0x08	; 8
    1136:	08 f0       	brcs	.+2      	; 0x113a <DIO_enuSetPinValue+0x26>
    1138:	d0 c0       	rjmp	.+416    	; 0x12da <DIO_enuSetPinValue+0x1c6>
    113a:	8c 81       	ldd	r24, Y+4	; 0x04
    113c:	82 30       	cpi	r24, 0x02	; 2
    113e:	20 f0       	brcs	.+8      	; 0x1148 <DIO_enuSetPinValue+0x34>
    1140:	8c 81       	ldd	r24, Y+4	; 0x04
    1142:	82 30       	cpi	r24, 0x02	; 2
    1144:	08 f0       	brcs	.+2      	; 0x1148 <DIO_enuSetPinValue+0x34>
    1146:	c9 c0       	rjmp	.+402    	; 0x12da <DIO_enuSetPinValue+0x1c6>
			&& Copy_u8PinID <= DIO_u8PIN7
			&& (Copy_u8Value <= DIO_u8HIGH || Copy_u8Value <= DIO_u8PULL_UP ))
	{
		switch (Copy_u8PortID)
    1148:	8a 81       	ldd	r24, Y+2	; 0x02
    114a:	28 2f       	mov	r18, r24
    114c:	30 e0       	ldi	r19, 0x00	; 0
    114e:	3e 83       	std	Y+6, r19	; 0x06
    1150:	2d 83       	std	Y+5, r18	; 0x05
    1152:	6d 81       	ldd	r22, Y+5	; 0x05
    1154:	7e 81       	ldd	r23, Y+6	; 0x06
    1156:	61 30       	cpi	r22, 0x01	; 1
    1158:	71 05       	cpc	r23, r1
    115a:	09 f4       	brne	.+2      	; 0x115e <DIO_enuSetPinValue+0x4a>
    115c:	41 c0       	rjmp	.+130    	; 0x11e0 <DIO_enuSetPinValue+0xcc>
    115e:	8d 81       	ldd	r24, Y+5	; 0x05
    1160:	9e 81       	ldd	r25, Y+6	; 0x06
    1162:	82 30       	cpi	r24, 0x02	; 2
    1164:	91 05       	cpc	r25, r1
    1166:	34 f4       	brge	.+12     	; 0x1174 <DIO_enuSetPinValue+0x60>
    1168:	2d 81       	ldd	r18, Y+5	; 0x05
    116a:	3e 81       	ldd	r19, Y+6	; 0x06
    116c:	21 15       	cp	r18, r1
    116e:	31 05       	cpc	r19, r1
    1170:	71 f0       	breq	.+28     	; 0x118e <DIO_enuSetPinValue+0x7a>
    1172:	b0 c0       	rjmp	.+352    	; 0x12d4 <DIO_enuSetPinValue+0x1c0>
    1174:	6d 81       	ldd	r22, Y+5	; 0x05
    1176:	7e 81       	ldd	r23, Y+6	; 0x06
    1178:	62 30       	cpi	r22, 0x02	; 2
    117a:	71 05       	cpc	r23, r1
    117c:	09 f4       	brne	.+2      	; 0x1180 <DIO_enuSetPinValue+0x6c>
    117e:	59 c0       	rjmp	.+178    	; 0x1232 <DIO_enuSetPinValue+0x11e>
    1180:	8d 81       	ldd	r24, Y+5	; 0x05
    1182:	9e 81       	ldd	r25, Y+6	; 0x06
    1184:	83 30       	cpi	r24, 0x03	; 3
    1186:	91 05       	cpc	r25, r1
    1188:	09 f4       	brne	.+2      	; 0x118c <DIO_enuSetPinValue+0x78>
    118a:	7c c0       	rjmp	.+248    	; 0x1284 <DIO_enuSetPinValue+0x170>
    118c:	a3 c0       	rjmp	.+326    	; 0x12d4 <DIO_enuSetPinValue+0x1c0>
		{
		case DIO_u8GROUP_A:

			PORTA &=~(DIO_MASK_BIT<<Copy_u8PinID);
    118e:	ab e3       	ldi	r26, 0x3B	; 59
    1190:	b0 e0       	ldi	r27, 0x00	; 0
    1192:	eb e3       	ldi	r30, 0x3B	; 59
    1194:	f0 e0       	ldi	r31, 0x00	; 0
    1196:	80 81       	ld	r24, Z
    1198:	48 2f       	mov	r20, r24
    119a:	8b 81       	ldd	r24, Y+3	; 0x03
    119c:	28 2f       	mov	r18, r24
    119e:	30 e0       	ldi	r19, 0x00	; 0
    11a0:	81 e0       	ldi	r24, 0x01	; 1
    11a2:	90 e0       	ldi	r25, 0x00	; 0
    11a4:	02 c0       	rjmp	.+4      	; 0x11aa <DIO_enuSetPinValue+0x96>
    11a6:	88 0f       	add	r24, r24
    11a8:	99 1f       	adc	r25, r25
    11aa:	2a 95       	dec	r18
    11ac:	e2 f7       	brpl	.-8      	; 0x11a6 <DIO_enuSetPinValue+0x92>
    11ae:	80 95       	com	r24
    11b0:	84 23       	and	r24, r20
    11b2:	8c 93       	st	X, r24
			PORTA |= (Copy_u8Value<<Copy_u8PinID);
    11b4:	ab e3       	ldi	r26, 0x3B	; 59
    11b6:	b0 e0       	ldi	r27, 0x00	; 0
    11b8:	eb e3       	ldi	r30, 0x3B	; 59
    11ba:	f0 e0       	ldi	r31, 0x00	; 0
    11bc:	80 81       	ld	r24, Z
    11be:	48 2f       	mov	r20, r24
    11c0:	8c 81       	ldd	r24, Y+4	; 0x04
    11c2:	28 2f       	mov	r18, r24
    11c4:	30 e0       	ldi	r19, 0x00	; 0
    11c6:	8b 81       	ldd	r24, Y+3	; 0x03
    11c8:	88 2f       	mov	r24, r24
    11ca:	90 e0       	ldi	r25, 0x00	; 0
    11cc:	b9 01       	movw	r22, r18
    11ce:	02 c0       	rjmp	.+4      	; 0x11d4 <DIO_enuSetPinValue+0xc0>
    11d0:	66 0f       	add	r22, r22
    11d2:	77 1f       	adc	r23, r23
    11d4:	8a 95       	dec	r24
    11d6:	e2 f7       	brpl	.-8      	; 0x11d0 <DIO_enuSetPinValue+0xbc>
    11d8:	cb 01       	movw	r24, r22
    11da:	84 2b       	or	r24, r20
    11dc:	8c 93       	st	X, r24
    11de:	7a c0       	rjmp	.+244    	; 0x12d4 <DIO_enuSetPinValue+0x1c0>

			break;
		case DIO_u8GROUP_B:

			PORTB &=~(DIO_MASK_BIT<<Copy_u8PinID);
    11e0:	a8 e3       	ldi	r26, 0x38	; 56
    11e2:	b0 e0       	ldi	r27, 0x00	; 0
    11e4:	e8 e3       	ldi	r30, 0x38	; 56
    11e6:	f0 e0       	ldi	r31, 0x00	; 0
    11e8:	80 81       	ld	r24, Z
    11ea:	48 2f       	mov	r20, r24
    11ec:	8b 81       	ldd	r24, Y+3	; 0x03
    11ee:	28 2f       	mov	r18, r24
    11f0:	30 e0       	ldi	r19, 0x00	; 0
    11f2:	81 e0       	ldi	r24, 0x01	; 1
    11f4:	90 e0       	ldi	r25, 0x00	; 0
    11f6:	02 c0       	rjmp	.+4      	; 0x11fc <DIO_enuSetPinValue+0xe8>
    11f8:	88 0f       	add	r24, r24
    11fa:	99 1f       	adc	r25, r25
    11fc:	2a 95       	dec	r18
    11fe:	e2 f7       	brpl	.-8      	; 0x11f8 <DIO_enuSetPinValue+0xe4>
    1200:	80 95       	com	r24
    1202:	84 23       	and	r24, r20
    1204:	8c 93       	st	X, r24
			PORTB |= (Copy_u8Value<<Copy_u8PinID);
    1206:	a8 e3       	ldi	r26, 0x38	; 56
    1208:	b0 e0       	ldi	r27, 0x00	; 0
    120a:	e8 e3       	ldi	r30, 0x38	; 56
    120c:	f0 e0       	ldi	r31, 0x00	; 0
    120e:	80 81       	ld	r24, Z
    1210:	48 2f       	mov	r20, r24
    1212:	8c 81       	ldd	r24, Y+4	; 0x04
    1214:	28 2f       	mov	r18, r24
    1216:	30 e0       	ldi	r19, 0x00	; 0
    1218:	8b 81       	ldd	r24, Y+3	; 0x03
    121a:	88 2f       	mov	r24, r24
    121c:	90 e0       	ldi	r25, 0x00	; 0
    121e:	b9 01       	movw	r22, r18
    1220:	02 c0       	rjmp	.+4      	; 0x1226 <DIO_enuSetPinValue+0x112>
    1222:	66 0f       	add	r22, r22
    1224:	77 1f       	adc	r23, r23
    1226:	8a 95       	dec	r24
    1228:	e2 f7       	brpl	.-8      	; 0x1222 <DIO_enuSetPinValue+0x10e>
    122a:	cb 01       	movw	r24, r22
    122c:	84 2b       	or	r24, r20
    122e:	8c 93       	st	X, r24
    1230:	51 c0       	rjmp	.+162    	; 0x12d4 <DIO_enuSetPinValue+0x1c0>

			break;
		case DIO_u8GROUP_C:

			PORTC &=~(DIO_MASK_BIT<<Copy_u8PinID);
    1232:	a5 e3       	ldi	r26, 0x35	; 53
    1234:	b0 e0       	ldi	r27, 0x00	; 0
    1236:	e5 e3       	ldi	r30, 0x35	; 53
    1238:	f0 e0       	ldi	r31, 0x00	; 0
    123a:	80 81       	ld	r24, Z
    123c:	48 2f       	mov	r20, r24
    123e:	8b 81       	ldd	r24, Y+3	; 0x03
    1240:	28 2f       	mov	r18, r24
    1242:	30 e0       	ldi	r19, 0x00	; 0
    1244:	81 e0       	ldi	r24, 0x01	; 1
    1246:	90 e0       	ldi	r25, 0x00	; 0
    1248:	02 c0       	rjmp	.+4      	; 0x124e <DIO_enuSetPinValue+0x13a>
    124a:	88 0f       	add	r24, r24
    124c:	99 1f       	adc	r25, r25
    124e:	2a 95       	dec	r18
    1250:	e2 f7       	brpl	.-8      	; 0x124a <DIO_enuSetPinValue+0x136>
    1252:	80 95       	com	r24
    1254:	84 23       	and	r24, r20
    1256:	8c 93       	st	X, r24
			PORTC |= (Copy_u8Value<<Copy_u8PinID);
    1258:	a5 e3       	ldi	r26, 0x35	; 53
    125a:	b0 e0       	ldi	r27, 0x00	; 0
    125c:	e5 e3       	ldi	r30, 0x35	; 53
    125e:	f0 e0       	ldi	r31, 0x00	; 0
    1260:	80 81       	ld	r24, Z
    1262:	48 2f       	mov	r20, r24
    1264:	8c 81       	ldd	r24, Y+4	; 0x04
    1266:	28 2f       	mov	r18, r24
    1268:	30 e0       	ldi	r19, 0x00	; 0
    126a:	8b 81       	ldd	r24, Y+3	; 0x03
    126c:	88 2f       	mov	r24, r24
    126e:	90 e0       	ldi	r25, 0x00	; 0
    1270:	b9 01       	movw	r22, r18
    1272:	02 c0       	rjmp	.+4      	; 0x1278 <DIO_enuSetPinValue+0x164>
    1274:	66 0f       	add	r22, r22
    1276:	77 1f       	adc	r23, r23
    1278:	8a 95       	dec	r24
    127a:	e2 f7       	brpl	.-8      	; 0x1274 <DIO_enuSetPinValue+0x160>
    127c:	cb 01       	movw	r24, r22
    127e:	84 2b       	or	r24, r20
    1280:	8c 93       	st	X, r24
    1282:	28 c0       	rjmp	.+80     	; 0x12d4 <DIO_enuSetPinValue+0x1c0>

			break;
		case DIO_u8GROUP_D:

			PORTD &=~(DIO_MASK_BIT<<Copy_u8PinID);
    1284:	a2 e3       	ldi	r26, 0x32	; 50
    1286:	b0 e0       	ldi	r27, 0x00	; 0
    1288:	e2 e3       	ldi	r30, 0x32	; 50
    128a:	f0 e0       	ldi	r31, 0x00	; 0
    128c:	80 81       	ld	r24, Z
    128e:	48 2f       	mov	r20, r24
    1290:	8b 81       	ldd	r24, Y+3	; 0x03
    1292:	28 2f       	mov	r18, r24
    1294:	30 e0       	ldi	r19, 0x00	; 0
    1296:	81 e0       	ldi	r24, 0x01	; 1
    1298:	90 e0       	ldi	r25, 0x00	; 0
    129a:	02 c0       	rjmp	.+4      	; 0x12a0 <DIO_enuSetPinValue+0x18c>
    129c:	88 0f       	add	r24, r24
    129e:	99 1f       	adc	r25, r25
    12a0:	2a 95       	dec	r18
    12a2:	e2 f7       	brpl	.-8      	; 0x129c <DIO_enuSetPinValue+0x188>
    12a4:	80 95       	com	r24
    12a6:	84 23       	and	r24, r20
    12a8:	8c 93       	st	X, r24
			PORTD |= (Copy_u8Value<<Copy_u8PinID);
    12aa:	a2 e3       	ldi	r26, 0x32	; 50
    12ac:	b0 e0       	ldi	r27, 0x00	; 0
    12ae:	e2 e3       	ldi	r30, 0x32	; 50
    12b0:	f0 e0       	ldi	r31, 0x00	; 0
    12b2:	80 81       	ld	r24, Z
    12b4:	48 2f       	mov	r20, r24
    12b6:	8c 81       	ldd	r24, Y+4	; 0x04
    12b8:	28 2f       	mov	r18, r24
    12ba:	30 e0       	ldi	r19, 0x00	; 0
    12bc:	8b 81       	ldd	r24, Y+3	; 0x03
    12be:	88 2f       	mov	r24, r24
    12c0:	90 e0       	ldi	r25, 0x00	; 0
    12c2:	b9 01       	movw	r22, r18
    12c4:	02 c0       	rjmp	.+4      	; 0x12ca <DIO_enuSetPinValue+0x1b6>
    12c6:	66 0f       	add	r22, r22
    12c8:	77 1f       	adc	r23, r23
    12ca:	8a 95       	dec	r24
    12cc:	e2 f7       	brpl	.-8      	; 0x12c6 <DIO_enuSetPinValue+0x1b2>
    12ce:	cb 01       	movw	r24, r22
    12d0:	84 2b       	or	r24, r20
    12d2:	8c 93       	st	X, r24

			break;
		}
		Local_enuErrorState = ES_OK;
    12d4:	81 e0       	ldi	r24, 0x01	; 1
    12d6:	89 83       	std	Y+1, r24	; 0x01
    12d8:	02 c0       	rjmp	.+4      	; 0x12de <DIO_enuSetPinValue+0x1ca>
	}
	else
	{
		Local_enuErrorState = ES_OUT_OF_RANGE;
    12da:	82 e0       	ldi	r24, 0x02	; 2
    12dc:	89 83       	std	Y+1, r24	; 0x01
	}

	return Local_enuErrorState;
    12de:	89 81       	ldd	r24, Y+1	; 0x01
}
    12e0:	26 96       	adiw	r28, 0x06	; 6
    12e2:	0f b6       	in	r0, 0x3f	; 63
    12e4:	f8 94       	cli
    12e6:	de bf       	out	0x3e, r29	; 62
    12e8:	0f be       	out	0x3f, r0	; 63
    12ea:	cd bf       	out	0x3d, r28	; 61
    12ec:	cf 91       	pop	r28
    12ee:	df 91       	pop	r29
    12f0:	08 95       	ret

000012f2 <DIO_enuTogPinValue>:

ES_t DIO_enuTogPinValue(u8 Copy_u8PortID , u8 Copy_u8PinID)
{
    12f2:	df 93       	push	r29
    12f4:	cf 93       	push	r28
    12f6:	00 d0       	rcall	.+0      	; 0x12f8 <DIO_enuTogPinValue+0x6>
    12f8:	00 d0       	rcall	.+0      	; 0x12fa <DIO_enuTogPinValue+0x8>
    12fa:	0f 92       	push	r0
    12fc:	cd b7       	in	r28, 0x3d	; 61
    12fe:	de b7       	in	r29, 0x3e	; 62
    1300:	8a 83       	std	Y+2, r24	; 0x02
    1302:	6b 83       	std	Y+3, r22	; 0x03
	ES_t Local_enuErrorState = ES_NOK;
    1304:	19 82       	std	Y+1, r1	; 0x01

	if (Copy_u8PortID <= DIO_u8GROUP_D
    1306:	8a 81       	ldd	r24, Y+2	; 0x02
    1308:	84 30       	cpi	r24, 0x04	; 4
    130a:	08 f0       	brcs	.+2      	; 0x130e <DIO_enuTogPinValue+0x1c>
    130c:	75 c0       	rjmp	.+234    	; 0x13f8 <DIO_enuTogPinValue+0x106>
    130e:	8b 81       	ldd	r24, Y+3	; 0x03
    1310:	88 30       	cpi	r24, 0x08	; 8
    1312:	08 f0       	brcs	.+2      	; 0x1316 <DIO_enuTogPinValue+0x24>
    1314:	71 c0       	rjmp	.+226    	; 0x13f8 <DIO_enuTogPinValue+0x106>
			&& Copy_u8PinID <= DIO_u8PIN7)
	{
		switch (Copy_u8PortID)
    1316:	8a 81       	ldd	r24, Y+2	; 0x02
    1318:	28 2f       	mov	r18, r24
    131a:	30 e0       	ldi	r19, 0x00	; 0
    131c:	3d 83       	std	Y+5, r19	; 0x05
    131e:	2c 83       	std	Y+4, r18	; 0x04
    1320:	8c 81       	ldd	r24, Y+4	; 0x04
    1322:	9d 81       	ldd	r25, Y+5	; 0x05
    1324:	81 30       	cpi	r24, 0x01	; 1
    1326:	91 05       	cpc	r25, r1
    1328:	49 f1       	breq	.+82     	; 0x137c <DIO_enuTogPinValue+0x8a>
    132a:	2c 81       	ldd	r18, Y+4	; 0x04
    132c:	3d 81       	ldd	r19, Y+5	; 0x05
    132e:	22 30       	cpi	r18, 0x02	; 2
    1330:	31 05       	cpc	r19, r1
    1332:	2c f4       	brge	.+10     	; 0x133e <DIO_enuTogPinValue+0x4c>
    1334:	8c 81       	ldd	r24, Y+4	; 0x04
    1336:	9d 81       	ldd	r25, Y+5	; 0x05
    1338:	00 97       	sbiw	r24, 0x00	; 0
    133a:	61 f0       	breq	.+24     	; 0x1354 <DIO_enuTogPinValue+0x62>
    133c:	5a c0       	rjmp	.+180    	; 0x13f2 <DIO_enuTogPinValue+0x100>
    133e:	2c 81       	ldd	r18, Y+4	; 0x04
    1340:	3d 81       	ldd	r19, Y+5	; 0x05
    1342:	22 30       	cpi	r18, 0x02	; 2
    1344:	31 05       	cpc	r19, r1
    1346:	71 f1       	breq	.+92     	; 0x13a4 <DIO_enuTogPinValue+0xb2>
    1348:	8c 81       	ldd	r24, Y+4	; 0x04
    134a:	9d 81       	ldd	r25, Y+5	; 0x05
    134c:	83 30       	cpi	r24, 0x03	; 3
    134e:	91 05       	cpc	r25, r1
    1350:	e9 f1       	breq	.+122    	; 0x13cc <DIO_enuTogPinValue+0xda>
    1352:	4f c0       	rjmp	.+158    	; 0x13f2 <DIO_enuTogPinValue+0x100>
		{
		case DIO_u8GROUP_A:

			PORTA ^= (DIO_MASK_BIT<<Copy_u8PinID);
    1354:	ab e3       	ldi	r26, 0x3B	; 59
    1356:	b0 e0       	ldi	r27, 0x00	; 0
    1358:	eb e3       	ldi	r30, 0x3B	; 59
    135a:	f0 e0       	ldi	r31, 0x00	; 0
    135c:	80 81       	ld	r24, Z
    135e:	48 2f       	mov	r20, r24
    1360:	8b 81       	ldd	r24, Y+3	; 0x03
    1362:	28 2f       	mov	r18, r24
    1364:	30 e0       	ldi	r19, 0x00	; 0
    1366:	81 e0       	ldi	r24, 0x01	; 1
    1368:	90 e0       	ldi	r25, 0x00	; 0
    136a:	02 2e       	mov	r0, r18
    136c:	02 c0       	rjmp	.+4      	; 0x1372 <DIO_enuTogPinValue+0x80>
    136e:	88 0f       	add	r24, r24
    1370:	99 1f       	adc	r25, r25
    1372:	0a 94       	dec	r0
    1374:	e2 f7       	brpl	.-8      	; 0x136e <DIO_enuTogPinValue+0x7c>
    1376:	84 27       	eor	r24, r20
    1378:	8c 93       	st	X, r24
    137a:	3b c0       	rjmp	.+118    	; 0x13f2 <DIO_enuTogPinValue+0x100>

			break;
		case DIO_u8GROUP_B:

			PORTB ^= (DIO_MASK_BIT<<Copy_u8PinID);
    137c:	a8 e3       	ldi	r26, 0x38	; 56
    137e:	b0 e0       	ldi	r27, 0x00	; 0
    1380:	e8 e3       	ldi	r30, 0x38	; 56
    1382:	f0 e0       	ldi	r31, 0x00	; 0
    1384:	80 81       	ld	r24, Z
    1386:	48 2f       	mov	r20, r24
    1388:	8b 81       	ldd	r24, Y+3	; 0x03
    138a:	28 2f       	mov	r18, r24
    138c:	30 e0       	ldi	r19, 0x00	; 0
    138e:	81 e0       	ldi	r24, 0x01	; 1
    1390:	90 e0       	ldi	r25, 0x00	; 0
    1392:	02 2e       	mov	r0, r18
    1394:	02 c0       	rjmp	.+4      	; 0x139a <DIO_enuTogPinValue+0xa8>
    1396:	88 0f       	add	r24, r24
    1398:	99 1f       	adc	r25, r25
    139a:	0a 94       	dec	r0
    139c:	e2 f7       	brpl	.-8      	; 0x1396 <DIO_enuTogPinValue+0xa4>
    139e:	84 27       	eor	r24, r20
    13a0:	8c 93       	st	X, r24
    13a2:	27 c0       	rjmp	.+78     	; 0x13f2 <DIO_enuTogPinValue+0x100>

			break;
		case DIO_u8GROUP_C:

			PORTC ^= (DIO_MASK_BIT<<Copy_u8PinID);
    13a4:	a5 e3       	ldi	r26, 0x35	; 53
    13a6:	b0 e0       	ldi	r27, 0x00	; 0
    13a8:	e5 e3       	ldi	r30, 0x35	; 53
    13aa:	f0 e0       	ldi	r31, 0x00	; 0
    13ac:	80 81       	ld	r24, Z
    13ae:	48 2f       	mov	r20, r24
    13b0:	8b 81       	ldd	r24, Y+3	; 0x03
    13b2:	28 2f       	mov	r18, r24
    13b4:	30 e0       	ldi	r19, 0x00	; 0
    13b6:	81 e0       	ldi	r24, 0x01	; 1
    13b8:	90 e0       	ldi	r25, 0x00	; 0
    13ba:	02 2e       	mov	r0, r18
    13bc:	02 c0       	rjmp	.+4      	; 0x13c2 <DIO_enuTogPinValue+0xd0>
    13be:	88 0f       	add	r24, r24
    13c0:	99 1f       	adc	r25, r25
    13c2:	0a 94       	dec	r0
    13c4:	e2 f7       	brpl	.-8      	; 0x13be <DIO_enuTogPinValue+0xcc>
    13c6:	84 27       	eor	r24, r20
    13c8:	8c 93       	st	X, r24
    13ca:	13 c0       	rjmp	.+38     	; 0x13f2 <DIO_enuTogPinValue+0x100>

			break;
		case DIO_u8GROUP_D:

			PORTD ^= (DIO_MASK_BIT<<Copy_u8PinID);
    13cc:	a2 e3       	ldi	r26, 0x32	; 50
    13ce:	b0 e0       	ldi	r27, 0x00	; 0
    13d0:	e2 e3       	ldi	r30, 0x32	; 50
    13d2:	f0 e0       	ldi	r31, 0x00	; 0
    13d4:	80 81       	ld	r24, Z
    13d6:	48 2f       	mov	r20, r24
    13d8:	8b 81       	ldd	r24, Y+3	; 0x03
    13da:	28 2f       	mov	r18, r24
    13dc:	30 e0       	ldi	r19, 0x00	; 0
    13de:	81 e0       	ldi	r24, 0x01	; 1
    13e0:	90 e0       	ldi	r25, 0x00	; 0
    13e2:	02 2e       	mov	r0, r18
    13e4:	02 c0       	rjmp	.+4      	; 0x13ea <DIO_enuTogPinValue+0xf8>
    13e6:	88 0f       	add	r24, r24
    13e8:	99 1f       	adc	r25, r25
    13ea:	0a 94       	dec	r0
    13ec:	e2 f7       	brpl	.-8      	; 0x13e6 <DIO_enuTogPinValue+0xf4>
    13ee:	84 27       	eor	r24, r20
    13f0:	8c 93       	st	X, r24

			break;
		}
		Local_enuErrorState = ES_OK;
    13f2:	81 e0       	ldi	r24, 0x01	; 1
    13f4:	89 83       	std	Y+1, r24	; 0x01
    13f6:	02 c0       	rjmp	.+4      	; 0x13fc <DIO_enuTogPinValue+0x10a>
	}
	else
	{
		Local_enuErrorState = ES_OUT_OF_RANGE;
    13f8:	82 e0       	ldi	r24, 0x02	; 2
    13fa:	89 83       	std	Y+1, r24	; 0x01
	}

	return Local_enuErrorState;
    13fc:	89 81       	ldd	r24, Y+1	; 0x01
}
    13fe:	0f 90       	pop	r0
    1400:	0f 90       	pop	r0
    1402:	0f 90       	pop	r0
    1404:	0f 90       	pop	r0
    1406:	0f 90       	pop	r0
    1408:	cf 91       	pop	r28
    140a:	df 91       	pop	r29
    140c:	08 95       	ret

0000140e <DIO_enuGetPinValue>:
ES_t DIO_enuGetPinValue(u8 Copy_u8PortID , u8 Copy_u8PinID , u8 * Copy_pu8Value)
{
    140e:	df 93       	push	r29
    1410:	cf 93       	push	r28
    1412:	cd b7       	in	r28, 0x3d	; 61
    1414:	de b7       	in	r29, 0x3e	; 62
    1416:	27 97       	sbiw	r28, 0x07	; 7
    1418:	0f b6       	in	r0, 0x3f	; 63
    141a:	f8 94       	cli
    141c:	de bf       	out	0x3e, r29	; 62
    141e:	0f be       	out	0x3f, r0	; 63
    1420:	cd bf       	out	0x3d, r28	; 61
    1422:	8a 83       	std	Y+2, r24	; 0x02
    1424:	6b 83       	std	Y+3, r22	; 0x03
    1426:	5d 83       	std	Y+5, r21	; 0x05
    1428:	4c 83       	std	Y+4, r20	; 0x04
	ES_t Local_enuErrorState = ES_NOK;
    142a:	19 82       	std	Y+1, r1	; 0x01

	if (Copy_pu8Value != NULL)
    142c:	8c 81       	ldd	r24, Y+4	; 0x04
    142e:	9d 81       	ldd	r25, Y+5	; 0x05
    1430:	00 97       	sbiw	r24, 0x00	; 0
    1432:	09 f4       	brne	.+2      	; 0x1436 <DIO_enuGetPinValue+0x28>
    1434:	7e c0       	rjmp	.+252    	; 0x1532 <DIO_enuGetPinValue+0x124>
	{
		if(Copy_u8PortID <= DIO_u8GROUP_D
    1436:	8a 81       	ldd	r24, Y+2	; 0x02
    1438:	84 30       	cpi	r24, 0x04	; 4
    143a:	08 f0       	brcs	.+2      	; 0x143e <DIO_enuGetPinValue+0x30>
    143c:	77 c0       	rjmp	.+238    	; 0x152c <DIO_enuGetPinValue+0x11e>
    143e:	8b 81       	ldd	r24, Y+3	; 0x03
    1440:	88 30       	cpi	r24, 0x08	; 8
    1442:	08 f0       	brcs	.+2      	; 0x1446 <DIO_enuGetPinValue+0x38>
    1444:	73 c0       	rjmp	.+230    	; 0x152c <DIO_enuGetPinValue+0x11e>
				&& Copy_u8PinID <= DIO_u8PIN7)
		{
			switch (Copy_u8PortID)
    1446:	8a 81       	ldd	r24, Y+2	; 0x02
    1448:	28 2f       	mov	r18, r24
    144a:	30 e0       	ldi	r19, 0x00	; 0
    144c:	3f 83       	std	Y+7, r19	; 0x07
    144e:	2e 83       	std	Y+6, r18	; 0x06
    1450:	4e 81       	ldd	r20, Y+6	; 0x06
    1452:	5f 81       	ldd	r21, Y+7	; 0x07
    1454:	41 30       	cpi	r20, 0x01	; 1
    1456:	51 05       	cpc	r21, r1
    1458:	59 f1       	breq	.+86     	; 0x14b0 <DIO_enuGetPinValue+0xa2>
    145a:	8e 81       	ldd	r24, Y+6	; 0x06
    145c:	9f 81       	ldd	r25, Y+7	; 0x07
    145e:	82 30       	cpi	r24, 0x02	; 2
    1460:	91 05       	cpc	r25, r1
    1462:	34 f4       	brge	.+12     	; 0x1470 <DIO_enuGetPinValue+0x62>
    1464:	2e 81       	ldd	r18, Y+6	; 0x06
    1466:	3f 81       	ldd	r19, Y+7	; 0x07
    1468:	21 15       	cp	r18, r1
    146a:	31 05       	cpc	r19, r1
    146c:	69 f0       	breq	.+26     	; 0x1488 <DIO_enuGetPinValue+0x7a>
    146e:	5b c0       	rjmp	.+182    	; 0x1526 <DIO_enuGetPinValue+0x118>
    1470:	4e 81       	ldd	r20, Y+6	; 0x06
    1472:	5f 81       	ldd	r21, Y+7	; 0x07
    1474:	42 30       	cpi	r20, 0x02	; 2
    1476:	51 05       	cpc	r21, r1
    1478:	79 f1       	breq	.+94     	; 0x14d8 <DIO_enuGetPinValue+0xca>
    147a:	8e 81       	ldd	r24, Y+6	; 0x06
    147c:	9f 81       	ldd	r25, Y+7	; 0x07
    147e:	83 30       	cpi	r24, 0x03	; 3
    1480:	91 05       	cpc	r25, r1
    1482:	09 f4       	brne	.+2      	; 0x1486 <DIO_enuGetPinValue+0x78>
    1484:	3d c0       	rjmp	.+122    	; 0x1500 <DIO_enuGetPinValue+0xf2>
    1486:	4f c0       	rjmp	.+158    	; 0x1526 <DIO_enuGetPinValue+0x118>
			{
			case DIO_u8GROUP_A:

				*Copy_pu8Value = ( (PINA >> Copy_u8PinID ) & DIO_MASK_BIT);
    1488:	e9 e3       	ldi	r30, 0x39	; 57
    148a:	f0 e0       	ldi	r31, 0x00	; 0
    148c:	80 81       	ld	r24, Z
    148e:	28 2f       	mov	r18, r24
    1490:	30 e0       	ldi	r19, 0x00	; 0
    1492:	8b 81       	ldd	r24, Y+3	; 0x03
    1494:	88 2f       	mov	r24, r24
    1496:	90 e0       	ldi	r25, 0x00	; 0
    1498:	a9 01       	movw	r20, r18
    149a:	02 c0       	rjmp	.+4      	; 0x14a0 <DIO_enuGetPinValue+0x92>
    149c:	55 95       	asr	r21
    149e:	47 95       	ror	r20
    14a0:	8a 95       	dec	r24
    14a2:	e2 f7       	brpl	.-8      	; 0x149c <DIO_enuGetPinValue+0x8e>
    14a4:	ca 01       	movw	r24, r20
    14a6:	81 70       	andi	r24, 0x01	; 1
    14a8:	ec 81       	ldd	r30, Y+4	; 0x04
    14aa:	fd 81       	ldd	r31, Y+5	; 0x05
    14ac:	80 83       	st	Z, r24
    14ae:	3b c0       	rjmp	.+118    	; 0x1526 <DIO_enuGetPinValue+0x118>

				break;
			case DIO_u8GROUP_B:

				*Copy_pu8Value = ( (PINB >> Copy_u8PinID ) & DIO_MASK_BIT);
    14b0:	e6 e3       	ldi	r30, 0x36	; 54
    14b2:	f0 e0       	ldi	r31, 0x00	; 0
    14b4:	80 81       	ld	r24, Z
    14b6:	28 2f       	mov	r18, r24
    14b8:	30 e0       	ldi	r19, 0x00	; 0
    14ba:	8b 81       	ldd	r24, Y+3	; 0x03
    14bc:	88 2f       	mov	r24, r24
    14be:	90 e0       	ldi	r25, 0x00	; 0
    14c0:	a9 01       	movw	r20, r18
    14c2:	02 c0       	rjmp	.+4      	; 0x14c8 <DIO_enuGetPinValue+0xba>
    14c4:	55 95       	asr	r21
    14c6:	47 95       	ror	r20
    14c8:	8a 95       	dec	r24
    14ca:	e2 f7       	brpl	.-8      	; 0x14c4 <DIO_enuGetPinValue+0xb6>
    14cc:	ca 01       	movw	r24, r20
    14ce:	81 70       	andi	r24, 0x01	; 1
    14d0:	ec 81       	ldd	r30, Y+4	; 0x04
    14d2:	fd 81       	ldd	r31, Y+5	; 0x05
    14d4:	80 83       	st	Z, r24
    14d6:	27 c0       	rjmp	.+78     	; 0x1526 <DIO_enuGetPinValue+0x118>

				break;
			case DIO_u8GROUP_C:

				*Copy_pu8Value = ( (PINC >> Copy_u8PinID ) & DIO_MASK_BIT);
    14d8:	e3 e3       	ldi	r30, 0x33	; 51
    14da:	f0 e0       	ldi	r31, 0x00	; 0
    14dc:	80 81       	ld	r24, Z
    14de:	28 2f       	mov	r18, r24
    14e0:	30 e0       	ldi	r19, 0x00	; 0
    14e2:	8b 81       	ldd	r24, Y+3	; 0x03
    14e4:	88 2f       	mov	r24, r24
    14e6:	90 e0       	ldi	r25, 0x00	; 0
    14e8:	a9 01       	movw	r20, r18
    14ea:	02 c0       	rjmp	.+4      	; 0x14f0 <DIO_enuGetPinValue+0xe2>
    14ec:	55 95       	asr	r21
    14ee:	47 95       	ror	r20
    14f0:	8a 95       	dec	r24
    14f2:	e2 f7       	brpl	.-8      	; 0x14ec <DIO_enuGetPinValue+0xde>
    14f4:	ca 01       	movw	r24, r20
    14f6:	81 70       	andi	r24, 0x01	; 1
    14f8:	ec 81       	ldd	r30, Y+4	; 0x04
    14fa:	fd 81       	ldd	r31, Y+5	; 0x05
    14fc:	80 83       	st	Z, r24
    14fe:	13 c0       	rjmp	.+38     	; 0x1526 <DIO_enuGetPinValue+0x118>

				break;
			case DIO_u8GROUP_D:

				*Copy_pu8Value = ( (PIND >> Copy_u8PinID ) & DIO_MASK_BIT);
    1500:	e0 e3       	ldi	r30, 0x30	; 48
    1502:	f0 e0       	ldi	r31, 0x00	; 0
    1504:	80 81       	ld	r24, Z
    1506:	28 2f       	mov	r18, r24
    1508:	30 e0       	ldi	r19, 0x00	; 0
    150a:	8b 81       	ldd	r24, Y+3	; 0x03
    150c:	88 2f       	mov	r24, r24
    150e:	90 e0       	ldi	r25, 0x00	; 0
    1510:	a9 01       	movw	r20, r18
    1512:	02 c0       	rjmp	.+4      	; 0x1518 <DIO_enuGetPinValue+0x10a>
    1514:	55 95       	asr	r21
    1516:	47 95       	ror	r20
    1518:	8a 95       	dec	r24
    151a:	e2 f7       	brpl	.-8      	; 0x1514 <DIO_enuGetPinValue+0x106>
    151c:	ca 01       	movw	r24, r20
    151e:	81 70       	andi	r24, 0x01	; 1
    1520:	ec 81       	ldd	r30, Y+4	; 0x04
    1522:	fd 81       	ldd	r31, Y+5	; 0x05
    1524:	80 83       	st	Z, r24

				break;
			}
			Local_enuErrorState = ES_OK;
    1526:	81 e0       	ldi	r24, 0x01	; 1
    1528:	89 83       	std	Y+1, r24	; 0x01
    152a:	05 c0       	rjmp	.+10     	; 0x1536 <DIO_enuGetPinValue+0x128>
		}
		else
		{
			Local_enuErrorState = ES_OUT_OF_RANGE;
    152c:	82 e0       	ldi	r24, 0x02	; 2
    152e:	89 83       	std	Y+1, r24	; 0x01
    1530:	02 c0       	rjmp	.+4      	; 0x1536 <DIO_enuGetPinValue+0x128>
		}
	}
	else
	{
		Local_enuErrorState = ES_NULL_POINTER;
    1532:	83 e0       	ldi	r24, 0x03	; 3
    1534:	89 83       	std	Y+1, r24	; 0x01
	}

	return Local_enuErrorState;
    1536:	89 81       	ldd	r24, Y+1	; 0x01
}
    1538:	27 96       	adiw	r28, 0x07	; 7
    153a:	0f b6       	in	r0, 0x3f	; 63
    153c:	f8 94       	cli
    153e:	de bf       	out	0x3e, r29	; 62
    1540:	0f be       	out	0x3f, r0	; 63
    1542:	cd bf       	out	0x3d, r28	; 61
    1544:	cf 91       	pop	r28
    1546:	df 91       	pop	r29
    1548:	08 95       	ret

0000154a <GIE_Enable>:
#include "GIE_Private.h"
#include "stdTypes.h"
void GIE_Enable()
{
    154a:	df 93       	push	r29
    154c:	cf 93       	push	r28
    154e:	cd b7       	in	r28, 0x3d	; 61
    1550:	de b7       	in	r29, 0x3e	; 62
	SREG |=(1<<7);
    1552:	af e5       	ldi	r26, 0x5F	; 95
    1554:	b0 e0       	ldi	r27, 0x00	; 0
    1556:	ef e5       	ldi	r30, 0x5F	; 95
    1558:	f0 e0       	ldi	r31, 0x00	; 0
    155a:	80 81       	ld	r24, Z
    155c:	80 68       	ori	r24, 0x80	; 128
    155e:	8c 93       	st	X, r24
	}
    1560:	cf 91       	pop	r28
    1562:	df 91       	pop	r29
    1564:	08 95       	ret

00001566 <GIE_Disable>:
void GIE_Disable()
{
    1566:	df 93       	push	r29
    1568:	cf 93       	push	r28
    156a:	cd b7       	in	r28, 0x3d	; 61
    156c:	de b7       	in	r29, 0x3e	; 62
	SREG &=~(1<<7);
    156e:	af e5       	ldi	r26, 0x5F	; 95
    1570:	b0 e0       	ldi	r27, 0x00	; 0
    1572:	ef e5       	ldi	r30, 0x5F	; 95
    1574:	f0 e0       	ldi	r31, 0x00	; 0
    1576:	80 81       	ld	r24, Z
    1578:	8f 77       	andi	r24, 0x7F	; 127
    157a:	8c 93       	st	X, r24
}
    157c:	cf 91       	pop	r28
    157e:	df 91       	pop	r29
    1580:	08 95       	ret

00001582 <IIC_enuInit>:

#include "IIC_priv.h"
#include "IIC_config.h"

ES_t IIC_enuInit(void)
{
    1582:	df 93       	push	r29
    1584:	cf 93       	push	r28
    1586:	0f 92       	push	r0
    1588:	cd b7       	in	r28, 0x3d	; 61
    158a:	de b7       	in	r29, 0x3e	; 62
	ES_t Local_u8ErrorState = ES_NOK;
    158c:	19 82       	std	Y+1, r1	; 0x01

#if IIC_MODE == IIC_MASTER

	TWBR= (u8)BITRATE(IIC_CLOCK_SPEED);
    158e:	e0 e2       	ldi	r30, 0x20	; 32
    1590:	f0 e0       	ldi	r31, 0x00	; 0
    1592:	88 e4       	ldi	r24, 0x48	; 72
    1594:	80 83       	st	Z, r24

	#if IIC_PRES == 1ul
		TWSR &= ~(3<<0);
    1596:	a1 e2       	ldi	r26, 0x21	; 33
    1598:	b0 e0       	ldi	r27, 0x00	; 0
    159a:	e1 e2       	ldi	r30, 0x21	; 33
    159c:	f0 e0       	ldi	r31, 0x00	; 0
    159e:	80 81       	ld	r24, Z
    15a0:	8c 7f       	andi	r24, 0xFC	; 252
    15a2:	8c 93       	st	X, r24
	#endif

	TWAR &=~ (1<<0);
    15a4:	a2 e2       	ldi	r26, 0x22	; 34
    15a6:	b0 e0       	ldi	r27, 0x00	; 0
    15a8:	e2 e2       	ldi	r30, 0x22	; 34
    15aa:	f0 e0       	ldi	r31, 0x00	; 0
    15ac:	80 81       	ld	r24, Z
    15ae:	8e 7f       	andi	r24, 0xFE	; 254
    15b0:	8c 93       	st	X, r24
	TWAR = (IIC_NODE_ADDRESS<<1) | IIC_RECOG_GENERAL_CALL;
    15b2:	e2 e2       	ldi	r30, 0x22	; 34
    15b4:	f0 e0       	ldi	r31, 0x00	; 0
    15b6:	8a e0       	ldi	r24, 0x0A	; 10
    15b8:	80 83       	st	Z, r24

	//clear flag
	TWCR |=(1<<7);
    15ba:	a6 e5       	ldi	r26, 0x56	; 86
    15bc:	b0 e0       	ldi	r27, 0x00	; 0
    15be:	e6 e5       	ldi	r30, 0x56	; 86
    15c0:	f0 e0       	ldi	r31, 0x00	; 0
    15c2:	80 81       	ld	r24, Z
    15c4:	80 68       	ori	r24, 0x80	; 128
    15c6:	8c 93       	st	X, r24
	//enable IIC
	TWCR |=(1<<2);
    15c8:	a6 e5       	ldi	r26, 0x56	; 86
    15ca:	b0 e0       	ldi	r27, 0x00	; 0
    15cc:	e6 e5       	ldi	r30, 0x56	; 86
    15ce:	f0 e0       	ldi	r31, 0x00	; 0
    15d0:	80 81       	ld	r24, Z
    15d2:	84 60       	ori	r24, 0x04	; 4
    15d4:	8c 93       	st	X, r24
	TWCR |=(1<<7);
	//enable IIC
	TWCR |=(1<<2);
#endif

	return Local_u8ErrorState;
    15d6:	89 81       	ldd	r24, Y+1	; 0x01
}
    15d8:	0f 90       	pop	r0
    15da:	cf 91       	pop	r28
    15dc:	df 91       	pop	r29
    15de:	08 95       	ret

000015e0 <IIC_enuStartCondition>:

ES_t IIC_enuStartCondition(void)
{
    15e0:	df 93       	push	r29
    15e2:	cf 93       	push	r28
    15e4:	0f 92       	push	r0
    15e6:	cd b7       	in	r28, 0x3d	; 61
    15e8:	de b7       	in	r29, 0x3e	; 62
	ES_t Local_u8ErrorState = ES_NOK;
    15ea:	19 82       	std	Y+1, r1	; 0x01

	TWCR |=(1<<5);
    15ec:	a6 e5       	ldi	r26, 0x56	; 86
    15ee:	b0 e0       	ldi	r27, 0x00	; 0
    15f0:	e6 e5       	ldi	r30, 0x56	; 86
    15f2:	f0 e0       	ldi	r31, 0x00	; 0
    15f4:	80 81       	ld	r24, Z
    15f6:	80 62       	ori	r24, 0x20	; 32
    15f8:	8c 93       	st	X, r24
	//clear flag
	TWCR |=(1<<7);
    15fa:	a6 e5       	ldi	r26, 0x56	; 86
    15fc:	b0 e0       	ldi	r27, 0x00	; 0
    15fe:	e6 e5       	ldi	r30, 0x56	; 86
    1600:	f0 e0       	ldi	r31, 0x00	; 0
    1602:	80 81       	ld	r24, Z
    1604:	80 68       	ori	r24, 0x80	; 128
    1606:	8c 93       	st	X, r24
	while(! ((TWCR>>7)&1) );
    1608:	e6 e5       	ldi	r30, 0x56	; 86
    160a:	f0 e0       	ldi	r31, 0x00	; 0
    160c:	80 81       	ld	r24, Z
    160e:	88 23       	and	r24, r24
    1610:	dc f7       	brge	.-10     	; 0x1608 <IIC_enuStartCondition+0x28>

	if ((TWSR & 0xF8) == 0x08)
    1612:	e1 e2       	ldi	r30, 0x21	; 33
    1614:	f0 e0       	ldi	r31, 0x00	; 0
    1616:	80 81       	ld	r24, Z
    1618:	88 2f       	mov	r24, r24
    161a:	90 e0       	ldi	r25, 0x00	; 0
    161c:	88 7f       	andi	r24, 0xF8	; 248
    161e:	90 70       	andi	r25, 0x00	; 0
    1620:	88 30       	cpi	r24, 0x08	; 8
    1622:	91 05       	cpc	r25, r1
    1624:	11 f4       	brne	.+4      	; 0x162a <IIC_enuStartCondition+0x4a>
		Local_u8ErrorState = ES_OK;
    1626:	81 e0       	ldi	r24, 0x01	; 1
    1628:	89 83       	std	Y+1, r24	; 0x01

	return Local_u8ErrorState;
    162a:	89 81       	ldd	r24, Y+1	; 0x01
}
    162c:	0f 90       	pop	r0
    162e:	cf 91       	pop	r28
    1630:	df 91       	pop	r29
    1632:	08 95       	ret

00001634 <IIC_enuRepeatedStartCondition>:

ES_t IIC_enuRepeatedStartCondition(void)
{
    1634:	df 93       	push	r29
    1636:	cf 93       	push	r28
    1638:	0f 92       	push	r0
    163a:	cd b7       	in	r28, 0x3d	; 61
    163c:	de b7       	in	r29, 0x3e	; 62
	ES_t Local_u8ErrorState = ES_NOK;
    163e:	19 82       	std	Y+1, r1	; 0x01

	TWCR |=(1<<5);
    1640:	a6 e5       	ldi	r26, 0x56	; 86
    1642:	b0 e0       	ldi	r27, 0x00	; 0
    1644:	e6 e5       	ldi	r30, 0x56	; 86
    1646:	f0 e0       	ldi	r31, 0x00	; 0
    1648:	80 81       	ld	r24, Z
    164a:	80 62       	ori	r24, 0x20	; 32
    164c:	8c 93       	st	X, r24
	//clear flag
	TWCR |=(1<<7);
    164e:	a6 e5       	ldi	r26, 0x56	; 86
    1650:	b0 e0       	ldi	r27, 0x00	; 0
    1652:	e6 e5       	ldi	r30, 0x56	; 86
    1654:	f0 e0       	ldi	r31, 0x00	; 0
    1656:	80 81       	ld	r24, Z
    1658:	80 68       	ori	r24, 0x80	; 128
    165a:	8c 93       	st	X, r24
	while(! ((TWCR>>7)&1) );
    165c:	e6 e5       	ldi	r30, 0x56	; 86
    165e:	f0 e0       	ldi	r31, 0x00	; 0
    1660:	80 81       	ld	r24, Z
    1662:	88 23       	and	r24, r24
    1664:	dc f7       	brge	.-10     	; 0x165c <IIC_enuRepeatedStartCondition+0x28>

	if ((TWSR & 0xF8) == 0x10)
    1666:	e1 e2       	ldi	r30, 0x21	; 33
    1668:	f0 e0       	ldi	r31, 0x00	; 0
    166a:	80 81       	ld	r24, Z
    166c:	88 2f       	mov	r24, r24
    166e:	90 e0       	ldi	r25, 0x00	; 0
    1670:	88 7f       	andi	r24, 0xF8	; 248
    1672:	90 70       	andi	r25, 0x00	; 0
    1674:	80 31       	cpi	r24, 0x10	; 16
    1676:	91 05       	cpc	r25, r1
    1678:	11 f4       	brne	.+4      	; 0x167e <IIC_enuRepeatedStartCondition+0x4a>
		Local_u8ErrorState = ES_OK;
    167a:	81 e0       	ldi	r24, 0x01	; 1
    167c:	89 83       	std	Y+1, r24	; 0x01

	return Local_u8ErrorState;
    167e:	89 81       	ldd	r24, Y+1	; 0x01
}
    1680:	0f 90       	pop	r0
    1682:	cf 91       	pop	r28
    1684:	df 91       	pop	r29
    1686:	08 95       	ret

00001688 <IIC_enuStopCondition>:

ES_t IIC_enuStopCondition(void)
{
    1688:	df 93       	push	r29
    168a:	cf 93       	push	r28
    168c:	0f 92       	push	r0
    168e:	cd b7       	in	r28, 0x3d	; 61
    1690:	de b7       	in	r29, 0x3e	; 62
	ES_t Local_u8ErrorState = ES_NOK;
    1692:	19 82       	std	Y+1, r1	; 0x01

	//clear flag
	TWCR |=(1<<7);
    1694:	a6 e5       	ldi	r26, 0x56	; 86
    1696:	b0 e0       	ldi	r27, 0x00	; 0
    1698:	e6 e5       	ldi	r30, 0x56	; 86
    169a:	f0 e0       	ldi	r31, 0x00	; 0
    169c:	80 81       	ld	r24, Z
    169e:	80 68       	ori	r24, 0x80	; 128
    16a0:	8c 93       	st	X, r24
	TWCR |=(1<<4);
    16a2:	a6 e5       	ldi	r26, 0x56	; 86
    16a4:	b0 e0       	ldi	r27, 0x00	; 0
    16a6:	e6 e5       	ldi	r30, 0x56	; 86
    16a8:	f0 e0       	ldi	r31, 0x00	; 0
    16aa:	80 81       	ld	r24, Z
    16ac:	80 61       	ori	r24, 0x10	; 16
    16ae:	8c 93       	st	X, r24

	return Local_u8ErrorState;
    16b0:	89 81       	ldd	r24, Y+1	; 0x01
}
    16b2:	0f 90       	pop	r0
    16b4:	cf 91       	pop	r28
    16b6:	df 91       	pop	r29
    16b8:	08 95       	ret

000016ba <IIC_enuWriteSlaveAddress>:
ES_t IIC_enuWriteSlaveAddress(u8 Copy_u8SlaveAddress , u8 Copy_u8Operation)
{
    16ba:	df 93       	push	r29
    16bc:	cf 93       	push	r28
    16be:	00 d0       	rcall	.+0      	; 0x16c0 <IIC_enuWriteSlaveAddress+0x6>
    16c0:	0f 92       	push	r0
    16c2:	cd b7       	in	r28, 0x3d	; 61
    16c4:	de b7       	in	r29, 0x3e	; 62
    16c6:	8a 83       	std	Y+2, r24	; 0x02
    16c8:	6b 83       	std	Y+3, r22	; 0x03
	ES_t Local_u8ErrorState = ES_NOK;
    16ca:	19 82       	std	Y+1, r1	; 0x01

	TWDR = ( (Copy_u8SlaveAddress<<1) | Copy_u8Operation );
    16cc:	e3 e2       	ldi	r30, 0x23	; 35
    16ce:	f0 e0       	ldi	r31, 0x00	; 0
    16d0:	8a 81       	ldd	r24, Y+2	; 0x02
    16d2:	88 2f       	mov	r24, r24
    16d4:	90 e0       	ldi	r25, 0x00	; 0
    16d6:	88 0f       	add	r24, r24
    16d8:	99 1f       	adc	r25, r25
    16da:	98 2f       	mov	r25, r24
    16dc:	8b 81       	ldd	r24, Y+3	; 0x03
    16de:	89 2b       	or	r24, r25
    16e0:	80 83       	st	Z, r24

	//clear start condition
	TWCR &=~(1<<5);
    16e2:	a6 e5       	ldi	r26, 0x56	; 86
    16e4:	b0 e0       	ldi	r27, 0x00	; 0
    16e6:	e6 e5       	ldi	r30, 0x56	; 86
    16e8:	f0 e0       	ldi	r31, 0x00	; 0
    16ea:	80 81       	ld	r24, Z
    16ec:	8f 7d       	andi	r24, 0xDF	; 223
    16ee:	8c 93       	st	X, r24
	//clear flag
	TWCR |=(1<<7);
    16f0:	a6 e5       	ldi	r26, 0x56	; 86
    16f2:	b0 e0       	ldi	r27, 0x00	; 0
    16f4:	e6 e5       	ldi	r30, 0x56	; 86
    16f6:	f0 e0       	ldi	r31, 0x00	; 0
    16f8:	80 81       	ld	r24, Z
    16fa:	80 68       	ori	r24, 0x80	; 128
    16fc:	8c 93       	st	X, r24
	while(! ((TWCR>>7)&1) );
    16fe:	e6 e5       	ldi	r30, 0x56	; 86
    1700:	f0 e0       	ldi	r31, 0x00	; 0
    1702:	80 81       	ld	r24, Z
    1704:	88 23       	and	r24, r24
    1706:	dc f7       	brge	.-10     	; 0x16fe <IIC_enuWriteSlaveAddress+0x44>

	if ((TWSR & 0xF8) == 0x18 && Copy_u8Operation == 0)
    1708:	e1 e2       	ldi	r30, 0x21	; 33
    170a:	f0 e0       	ldi	r31, 0x00	; 0
    170c:	80 81       	ld	r24, Z
    170e:	88 2f       	mov	r24, r24
    1710:	90 e0       	ldi	r25, 0x00	; 0
    1712:	88 7f       	andi	r24, 0xF8	; 248
    1714:	90 70       	andi	r25, 0x00	; 0
    1716:	88 31       	cpi	r24, 0x18	; 24
    1718:	91 05       	cpc	r25, r1
    171a:	31 f4       	brne	.+12     	; 0x1728 <IIC_enuWriteSlaveAddress+0x6e>
    171c:	8b 81       	ldd	r24, Y+3	; 0x03
    171e:	88 23       	and	r24, r24
    1720:	19 f4       	brne	.+6      	; 0x1728 <IIC_enuWriteSlaveAddress+0x6e>
		Local_u8ErrorState = ES_OK;
    1722:	81 e0       	ldi	r24, 0x01	; 1
    1724:	89 83       	std	Y+1, r24	; 0x01
    1726:	0f c0       	rjmp	.+30     	; 0x1746 <IIC_enuWriteSlaveAddress+0x8c>

	else if ((TWSR & 0xF8) == 0x40 && Copy_u8Operation == 1)
    1728:	e1 e2       	ldi	r30, 0x21	; 33
    172a:	f0 e0       	ldi	r31, 0x00	; 0
    172c:	80 81       	ld	r24, Z
    172e:	88 2f       	mov	r24, r24
    1730:	90 e0       	ldi	r25, 0x00	; 0
    1732:	88 7f       	andi	r24, 0xF8	; 248
    1734:	90 70       	andi	r25, 0x00	; 0
    1736:	80 34       	cpi	r24, 0x40	; 64
    1738:	91 05       	cpc	r25, r1
    173a:	29 f4       	brne	.+10     	; 0x1746 <IIC_enuWriteSlaveAddress+0x8c>
    173c:	8b 81       	ldd	r24, Y+3	; 0x03
    173e:	81 30       	cpi	r24, 0x01	; 1
    1740:	11 f4       	brne	.+4      	; 0x1746 <IIC_enuWriteSlaveAddress+0x8c>
		Local_u8ErrorState = ES_OK;
    1742:	81 e0       	ldi	r24, 0x01	; 1
    1744:	89 83       	std	Y+1, r24	; 0x01

	return Local_u8ErrorState;
    1746:	89 81       	ldd	r24, Y+1	; 0x01
}
    1748:	0f 90       	pop	r0
    174a:	0f 90       	pop	r0
    174c:	0f 90       	pop	r0
    174e:	cf 91       	pop	r28
    1750:	df 91       	pop	r29
    1752:	08 95       	ret

00001754 <IIC_enuWriteData>:

ES_t IIC_enuWriteData(u8 Copy_u8Data)
{
    1754:	df 93       	push	r29
    1756:	cf 93       	push	r28
    1758:	00 d0       	rcall	.+0      	; 0x175a <IIC_enuWriteData+0x6>
    175a:	cd b7       	in	r28, 0x3d	; 61
    175c:	de b7       	in	r29, 0x3e	; 62
    175e:	8a 83       	std	Y+2, r24	; 0x02
	ES_t Local_u8ErrorState = ES_NOK;
    1760:	19 82       	std	Y+1, r1	; 0x01

	TWDR = Copy_u8Data;
    1762:	e3 e2       	ldi	r30, 0x23	; 35
    1764:	f0 e0       	ldi	r31, 0x00	; 0
    1766:	8a 81       	ldd	r24, Y+2	; 0x02
    1768:	80 83       	st	Z, r24

	//clear flag
	TWCR |=(1<<7);
    176a:	a6 e5       	ldi	r26, 0x56	; 86
    176c:	b0 e0       	ldi	r27, 0x00	; 0
    176e:	e6 e5       	ldi	r30, 0x56	; 86
    1770:	f0 e0       	ldi	r31, 0x00	; 0
    1772:	80 81       	ld	r24, Z
    1774:	80 68       	ori	r24, 0x80	; 128
    1776:	8c 93       	st	X, r24
	while(! ((TWCR>>7)&1) );
    1778:	e6 e5       	ldi	r30, 0x56	; 86
    177a:	f0 e0       	ldi	r31, 0x00	; 0
    177c:	80 81       	ld	r24, Z
    177e:	88 23       	and	r24, r24
    1780:	dc f7       	brge	.-10     	; 0x1778 <IIC_enuWriteData+0x24>

	if ((TWSR & 0xF8) == 0x28)
    1782:	e1 e2       	ldi	r30, 0x21	; 33
    1784:	f0 e0       	ldi	r31, 0x00	; 0
    1786:	80 81       	ld	r24, Z
    1788:	88 2f       	mov	r24, r24
    178a:	90 e0       	ldi	r25, 0x00	; 0
    178c:	88 7f       	andi	r24, 0xF8	; 248
    178e:	90 70       	andi	r25, 0x00	; 0
    1790:	88 32       	cpi	r24, 0x28	; 40
    1792:	91 05       	cpc	r25, r1
    1794:	11 f4       	brne	.+4      	; 0x179a <IIC_enuWriteData+0x46>
		Local_u8ErrorState = ES_OK;
    1796:	81 e0       	ldi	r24, 0x01	; 1
    1798:	89 83       	std	Y+1, r24	; 0x01

	return Local_u8ErrorState;
    179a:	89 81       	ldd	r24, Y+1	; 0x01
}
    179c:	0f 90       	pop	r0
    179e:	0f 90       	pop	r0
    17a0:	cf 91       	pop	r28
    17a2:	df 91       	pop	r29
    17a4:	08 95       	ret

000017a6 <IIC_enuCheckMyAddress>:

ES_t IIC_enuCheckMyAddress(void)
{
    17a6:	df 93       	push	r29
    17a8:	cf 93       	push	r28
    17aa:	0f 92       	push	r0
    17ac:	cd b7       	in	r28, 0x3d	; 61
    17ae:	de b7       	in	r29, 0x3e	; 62
	ES_t Local_u8ErrorState = ES_NOK;
    17b0:	19 82       	std	Y+1, r1	; 0x01

	//enable acknowledge
	TWCR |= (1<<6);
    17b2:	a6 e5       	ldi	r26, 0x56	; 86
    17b4:	b0 e0       	ldi	r27, 0x00	; 0
    17b6:	e6 e5       	ldi	r30, 0x56	; 86
    17b8:	f0 e0       	ldi	r31, 0x00	; 0
    17ba:	80 81       	ld	r24, Z
    17bc:	80 64       	ori	r24, 0x40	; 64
    17be:	8c 93       	st	X, r24
	//clear flag
	TWCR |=(1<<7);
    17c0:	a6 e5       	ldi	r26, 0x56	; 86
    17c2:	b0 e0       	ldi	r27, 0x00	; 0
    17c4:	e6 e5       	ldi	r30, 0x56	; 86
    17c6:	f0 e0       	ldi	r31, 0x00	; 0
    17c8:	80 81       	ld	r24, Z
    17ca:	80 68       	ori	r24, 0x80	; 128
    17cc:	8c 93       	st	X, r24
	while(! ((TWCR>>7)&1) );
    17ce:	e6 e5       	ldi	r30, 0x56	; 86
    17d0:	f0 e0       	ldi	r31, 0x00	; 0
    17d2:	80 81       	ld	r24, Z
    17d4:	88 23       	and	r24, r24
    17d6:	dc f7       	brge	.-10     	; 0x17ce <IIC_enuCheckMyAddress+0x28>
	if ((TWSR & 0xF8) == 0x60)
    17d8:	e1 e2       	ldi	r30, 0x21	; 33
    17da:	f0 e0       	ldi	r31, 0x00	; 0
    17dc:	80 81       	ld	r24, Z
    17de:	88 2f       	mov	r24, r24
    17e0:	90 e0       	ldi	r25, 0x00	; 0
    17e2:	88 7f       	andi	r24, 0xF8	; 248
    17e4:	90 70       	andi	r25, 0x00	; 0
    17e6:	80 36       	cpi	r24, 0x60	; 96
    17e8:	91 05       	cpc	r25, r1
    17ea:	19 f4       	brne	.+6      	; 0x17f2 <IIC_enuCheckMyAddress+0x4c>
		Local_u8ErrorState = ES_OK;
    17ec:	81 e0       	ldi	r24, 0x01	; 1
    17ee:	89 83       	std	Y+1, r24	; 0x01
    17f0:	0c c0       	rjmp	.+24     	; 0x180a <IIC_enuCheckMyAddress+0x64>

	else if ((TWSR & 0xF8) == 0xA8)
    17f2:	e1 e2       	ldi	r30, 0x21	; 33
    17f4:	f0 e0       	ldi	r31, 0x00	; 0
    17f6:	80 81       	ld	r24, Z
    17f8:	88 2f       	mov	r24, r24
    17fa:	90 e0       	ldi	r25, 0x00	; 0
    17fc:	88 7f       	andi	r24, 0xF8	; 248
    17fe:	90 70       	andi	r25, 0x00	; 0
    1800:	88 3a       	cpi	r24, 0xA8	; 168
    1802:	91 05       	cpc	r25, r1
    1804:	11 f4       	brne	.+4      	; 0x180a <IIC_enuCheckMyAddress+0x64>
		Local_u8ErrorState = ES_OK;
    1806:	81 e0       	ldi	r24, 0x01	; 1
    1808:	89 83       	std	Y+1, r24	; 0x01
	return Local_u8ErrorState;
    180a:	89 81       	ldd	r24, Y+1	; 0x01
}
    180c:	0f 90       	pop	r0
    180e:	cf 91       	pop	r28
    1810:	df 91       	pop	r29
    1812:	08 95       	ret

00001814 <IIC_enuReadData>:

ES_t IIC_enuReadData(u8 * Copy_pu8Data)
{
    1814:	df 93       	push	r29
    1816:	cf 93       	push	r28
    1818:	00 d0       	rcall	.+0      	; 0x181a <IIC_enuReadData+0x6>
    181a:	0f 92       	push	r0
    181c:	cd b7       	in	r28, 0x3d	; 61
    181e:	de b7       	in	r29, 0x3e	; 62
    1820:	9b 83       	std	Y+3, r25	; 0x03
    1822:	8a 83       	std	Y+2, r24	; 0x02
	ES_t Local_u8ErrorState = ES_NOK;
    1824:	19 82       	std	Y+1, r1	; 0x01

	TWCR |=(1<<7);
    1826:	a6 e5       	ldi	r26, 0x56	; 86
    1828:	b0 e0       	ldi	r27, 0x00	; 0
    182a:	e6 e5       	ldi	r30, 0x56	; 86
    182c:	f0 e0       	ldi	r31, 0x00	; 0
    182e:	80 81       	ld	r24, Z
    1830:	80 68       	ori	r24, 0x80	; 128
    1832:	8c 93       	st	X, r24
	while(! ((TWCR>>7)&1) );
    1834:	e6 e5       	ldi	r30, 0x56	; 86
    1836:	f0 e0       	ldi	r31, 0x00	; 0
    1838:	80 81       	ld	r24, Z
    183a:	88 23       	and	r24, r24
    183c:	dc f7       	brge	.-10     	; 0x1834 <IIC_enuReadData+0x20>

	//clear flag

	if ((TWSR & 0xF8) == 0x50 || (TWSR & 0xF8) == 0x58)
    183e:	e1 e2       	ldi	r30, 0x21	; 33
    1840:	f0 e0       	ldi	r31, 0x00	; 0
    1842:	80 81       	ld	r24, Z
    1844:	88 2f       	mov	r24, r24
    1846:	90 e0       	ldi	r25, 0x00	; 0
    1848:	88 7f       	andi	r24, 0xF8	; 248
    184a:	90 70       	andi	r25, 0x00	; 0
    184c:	80 35       	cpi	r24, 0x50	; 80
    184e:	91 05       	cpc	r25, r1
    1850:	51 f0       	breq	.+20     	; 0x1866 <IIC_enuReadData+0x52>
    1852:	e1 e2       	ldi	r30, 0x21	; 33
    1854:	f0 e0       	ldi	r31, 0x00	; 0
    1856:	80 81       	ld	r24, Z
    1858:	88 2f       	mov	r24, r24
    185a:	90 e0       	ldi	r25, 0x00	; 0
    185c:	88 7f       	andi	r24, 0xF8	; 248
    185e:	90 70       	andi	r25, 0x00	; 0
    1860:	88 35       	cpi	r24, 0x58	; 88
    1862:	91 05       	cpc	r25, r1
    1864:	49 f4       	brne	.+18     	; 0x1878 <IIC_enuReadData+0x64>
	{
		*Copy_pu8Data = TWDR;
    1866:	e3 e2       	ldi	r30, 0x23	; 35
    1868:	f0 e0       	ldi	r31, 0x00	; 0
    186a:	80 81       	ld	r24, Z
    186c:	ea 81       	ldd	r30, Y+2	; 0x02
    186e:	fb 81       	ldd	r31, Y+3	; 0x03
    1870:	80 83       	st	Z, r24
		Local_u8ErrorState = ES_OK;
    1872:	81 e0       	ldi	r24, 0x01	; 1
    1874:	89 83       	std	Y+1, r24	; 0x01
    1876:	12 c0       	rjmp	.+36     	; 0x189c <IIC_enuReadData+0x88>
	}
	else if ((TWSR & 0xF8) == 0x80)
    1878:	e1 e2       	ldi	r30, 0x21	; 33
    187a:	f0 e0       	ldi	r31, 0x00	; 0
    187c:	80 81       	ld	r24, Z
    187e:	88 2f       	mov	r24, r24
    1880:	90 e0       	ldi	r25, 0x00	; 0
    1882:	88 7f       	andi	r24, 0xF8	; 248
    1884:	90 70       	andi	r25, 0x00	; 0
    1886:	80 38       	cpi	r24, 0x80	; 128
    1888:	91 05       	cpc	r25, r1
    188a:	41 f4       	brne	.+16     	; 0x189c <IIC_enuReadData+0x88>
	{
		*Copy_pu8Data = TWDR;
    188c:	e3 e2       	ldi	r30, 0x23	; 35
    188e:	f0 e0       	ldi	r31, 0x00	; 0
    1890:	80 81       	ld	r24, Z
    1892:	ea 81       	ldd	r30, Y+2	; 0x02
    1894:	fb 81       	ldd	r31, Y+3	; 0x03
    1896:	80 83       	st	Z, r24
		Local_u8ErrorState = ES_OK;
    1898:	81 e0       	ldi	r24, 0x01	; 1
    189a:	89 83       	std	Y+1, r24	; 0x01
	}
	return Local_u8ErrorState;
    189c:	89 81       	ldd	r24, Y+1	; 0x01
}
    189e:	0f 90       	pop	r0
    18a0:	0f 90       	pop	r0
    18a2:	0f 90       	pop	r0
    18a4:	cf 91       	pop	r28
    18a6:	df 91       	pop	r29
    18a8:	08 95       	ret

000018aa <__vector_13>:

static void(*gptr0)(void)=NULL;


ISR(__vector_13)
{
    18aa:	1f 92       	push	r1
    18ac:	0f 92       	push	r0
    18ae:	0f b6       	in	r0, 0x3f	; 63
    18b0:	0f 92       	push	r0
    18b2:	11 24       	eor	r1, r1
    18b4:	2f 93       	push	r18
    18b6:	3f 93       	push	r19
    18b8:	4f 93       	push	r20
    18ba:	5f 93       	push	r21
    18bc:	6f 93       	push	r22
    18be:	7f 93       	push	r23
    18c0:	8f 93       	push	r24
    18c2:	9f 93       	push	r25
    18c4:	af 93       	push	r26
    18c6:	bf 93       	push	r27
    18c8:	ef 93       	push	r30
    18ca:	ff 93       	push	r31
    18cc:	df 93       	push	r29
    18ce:	cf 93       	push	r28
    18d0:	cd b7       	in	r28, 0x3d	; 61
    18d2:	de b7       	in	r29, 0x3e	; 62
	if(gptr0 != NULL)
    18d4:	80 91 2e 04 	lds	r24, 0x042E
    18d8:	90 91 2f 04 	lds	r25, 0x042F
    18dc:	00 97       	sbiw	r24, 0x00	; 0
    18de:	29 f0       	breq	.+10     	; 0x18ea <__vector_13+0x40>
	gptr0();/*calling the function through "gptr0 pointer" in ISR*/
    18e0:	e0 91 2e 04 	lds	r30, 0x042E
    18e4:	f0 91 2f 04 	lds	r31, 0x042F
    18e8:	09 95       	icall
}
    18ea:	cf 91       	pop	r28
    18ec:	df 91       	pop	r29
    18ee:	ff 91       	pop	r31
    18f0:	ef 91       	pop	r30
    18f2:	bf 91       	pop	r27
    18f4:	af 91       	pop	r26
    18f6:	9f 91       	pop	r25
    18f8:	8f 91       	pop	r24
    18fa:	7f 91       	pop	r23
    18fc:	6f 91       	pop	r22
    18fe:	5f 91       	pop	r21
    1900:	4f 91       	pop	r20
    1902:	3f 91       	pop	r19
    1904:	2f 91       	pop	r18
    1906:	0f 90       	pop	r0
    1908:	0f be       	out	0x3f, r0	; 63
    190a:	0f 90       	pop	r0
    190c:	1f 90       	pop	r1
    190e:	18 95       	reti

00001910 <Call_Back_Fun>:

void Call_Back_Fun(void (*ptf)(void))/*passing the function to be executed in the ISR to pointer*/
{
    1910:	df 93       	push	r29
    1912:	cf 93       	push	r28
    1914:	00 d0       	rcall	.+0      	; 0x1916 <Call_Back_Fun+0x6>
    1916:	cd b7       	in	r28, 0x3d	; 61
    1918:	de b7       	in	r29, 0x3e	; 62
    191a:	9a 83       	std	Y+2, r25	; 0x02
    191c:	89 83       	std	Y+1, r24	; 0x01

		if  (ptf != NULL)
    191e:	89 81       	ldd	r24, Y+1	; 0x01
    1920:	9a 81       	ldd	r25, Y+2	; 0x02
    1922:	00 97       	sbiw	r24, 0x00	; 0
    1924:	31 f0       	breq	.+12     	; 0x1932 <Call_Back_Fun+0x22>
		      gptr0=ptf; /*passing the function to other pointer the one that will actually be called in ISR*/
    1926:	89 81       	ldd	r24, Y+1	; 0x01
    1928:	9a 81       	ldd	r25, Y+2	; 0x02
    192a:	90 93 2f 04 	sts	0x042F, r25
    192e:	80 93 2e 04 	sts	0x042E, r24





}
    1932:	0f 90       	pop	r0
    1934:	0f 90       	pop	r0
    1936:	cf 91       	pop	r28
    1938:	df 91       	pop	r29
    193a:	08 95       	ret

0000193c <Waveform0_Gen_Mode>:
 * ********************************
 * *** Waveform Generation Mode function *****
 *********************************
 ***********************************/
void Waveform0_Gen_Mode()
{
    193c:	df 93       	push	r29
    193e:	cf 93       	push	r28
    1940:	cd b7       	in	r28, 0x3d	; 61
    1942:	de b7       	in	r29, 0x3e	; 62
     TCCR0 &=~(1<<3);
     TCCR0 |=(1<<6);


#elif Wave_GEN_Mode == FAst_PWM
	 TCCR0 |=(1<<3);
    1944:	a3 e5       	ldi	r26, 0x53	; 83
    1946:	b0 e0       	ldi	r27, 0x00	; 0
    1948:	e3 e5       	ldi	r30, 0x53	; 83
    194a:	f0 e0       	ldi	r31, 0x00	; 0
    194c:	80 81       	ld	r24, Z
    194e:	88 60       	ori	r24, 0x08	; 8
    1950:	8c 93       	st	X, r24
	 TCCR0 |=(1<<6);
    1952:	a3 e5       	ldi	r26, 0x53	; 83
    1954:	b0 e0       	ldi	r27, 0x00	; 0
    1956:	e3 e5       	ldi	r30, 0x53	; 83
    1958:	f0 e0       	ldi	r31, 0x00	; 0
    195a:	80 81       	ld	r24, Z
    195c:	80 64       	ori	r24, 0x40	; 64
    195e:	8c 93       	st	X, r24

#else
#error"Waveform_Gen has a wrong choice"
#endif
}
    1960:	cf 91       	pop	r28
    1962:	df 91       	pop	r29
    1964:	08 95       	ret

00001966 <Compare0_Match_Out_Mode>:
 * ********************************
 * *** Compare match function *****
 *********************************
 ***********************************/
void Compare0_Match_Out_Mode()
{
    1966:	df 93       	push	r29
    1968:	cf 93       	push	r28
    196a:	cd b7       	in	r28, 0x3d	; 61
    196c:	de b7       	in	r29, 0x3e	; 62
			TCCR0 |=(1<<4);
			TCCR0 &=~(1<<5);


#elif Compare0_Match_Out == Clear_OC0
			TCCR0 |=(1<<5);
    196e:	a3 e5       	ldi	r26, 0x53	; 83
    1970:	b0 e0       	ldi	r27, 0x00	; 0
    1972:	e3 e5       	ldi	r30, 0x53	; 83
    1974:	f0 e0       	ldi	r31, 0x00	; 0
    1976:	80 81       	ld	r24, Z
    1978:	80 62       	ori	r24, 0x20	; 32
    197a:	8c 93       	st	X, r24
			TCCR0 &=~(1<<4);
    197c:	a3 e5       	ldi	r26, 0x53	; 83
    197e:	b0 e0       	ldi	r27, 0x00	; 0
    1980:	e3 e5       	ldi	r30, 0x53	; 83
    1982:	f0 e0       	ldi	r31, 0x00	; 0
    1984:	80 81       	ld	r24, Z
    1986:	8f 7e       	andi	r24, 0xEF	; 239
    1988:	8c 93       	st	X, r24
			TCCR0 |=(1<<5);
			TCCR0 |=(1<<4);

#else
#endif
}
    198a:	cf 91       	pop	r28
    198c:	df 91       	pop	r29
    198e:	08 95       	ret

00001990 <Clk0_Select>:
 * *** Clock source selection function
 *********************************
 ***********************************/

void Clk0_Select()
{
    1990:	df 93       	push	r29
    1992:	cf 93       	push	r28
    1994:	cd b7       	in	r28, 0x3d	; 61
    1996:	de b7       	in	r29, 0x3e	; 62
	    TCCR0 &=~(1<<1);
	    TCCR0 &=~(1<<2);


#elif Cl_Selec == cl_64
	    TCCR0 |=(1<<0);
    1998:	a3 e5       	ldi	r26, 0x53	; 83
    199a:	b0 e0       	ldi	r27, 0x00	; 0
    199c:	e3 e5       	ldi	r30, 0x53	; 83
    199e:	f0 e0       	ldi	r31, 0x00	; 0
    19a0:	80 81       	ld	r24, Z
    19a2:	81 60       	ori	r24, 0x01	; 1
    19a4:	8c 93       	st	X, r24
	    TCCR0 |=(1<<1);
    19a6:	a3 e5       	ldi	r26, 0x53	; 83
    19a8:	b0 e0       	ldi	r27, 0x00	; 0
    19aa:	e3 e5       	ldi	r30, 0x53	; 83
    19ac:	f0 e0       	ldi	r31, 0x00	; 0
    19ae:	80 81       	ld	r24, Z
    19b0:	82 60       	ori	r24, 0x02	; 2
    19b2:	8c 93       	st	X, r24
	    TCCR0 &=~(1<<2);
    19b4:	a3 e5       	ldi	r26, 0x53	; 83
    19b6:	b0 e0       	ldi	r27, 0x00	; 0
    19b8:	e3 e5       	ldi	r30, 0x53	; 83
    19ba:	f0 e0       	ldi	r31, 0x00	; 0
    19bc:	80 81       	ld	r24, Z
    19be:	8b 7f       	andi	r24, 0xFB	; 251
    19c0:	8c 93       	st	X, r24
	    TCCR0 |=(1<<1);
	    TCCR0 |=(1<<2);
#else
#endif

}
    19c2:	cf 91       	pop	r28
    19c4:	df 91       	pop	r29
    19c6:	08 95       	ret

000019c8 <OCR0_Value>:

void OCR0_Value(u8 Val)
{
    19c8:	df 93       	push	r29
    19ca:	cf 93       	push	r28
    19cc:	0f 92       	push	r0
    19ce:	cd b7       	in	r28, 0x3d	; 61
    19d0:	de b7       	in	r29, 0x3e	; 62
    19d2:	89 83       	std	Y+1, r24	; 0x01
	OCR0 =Val;
    19d4:	ec e5       	ldi	r30, 0x5C	; 92
    19d6:	f0 e0       	ldi	r31, 0x00	; 0
    19d8:	89 81       	ldd	r24, Y+1	; 0x01
    19da:	80 83       	st	Z, r24
}
    19dc:	0f 90       	pop	r0
    19de:	cf 91       	pop	r28
    19e0:	df 91       	pop	r29
    19e2:	08 95       	ret

000019e4 <MotOr_0ff>:
void MotOr_0ff()
{
    19e4:	df 93       	push	r29
    19e6:	cf 93       	push	r28
    19e8:	cd b7       	in	r28, 0x3d	; 61
    19ea:	de b7       	in	r29, 0x3e	; 62
	OCR0=0;
    19ec:	ec e5       	ldi	r30, 0x5C	; 92
    19ee:	f0 e0       	ldi	r31, 0x00	; 0
    19f0:	10 82       	st	Z, r1
}
    19f2:	cf 91       	pop	r28
    19f4:	df 91       	pop	r29
    19f6:	08 95       	ret

000019f8 <MotOr_On>:

void MotOr_On()
{
    19f8:	df 93       	push	r29
    19fa:	cf 93       	push	r28
    19fc:	cd b7       	in	r28, 0x3d	; 61
    19fe:	de b7       	in	r29, 0x3e	; 62
	OCR0=200;
    1a00:	ec e5       	ldi	r30, 0x5C	; 92
    1a02:	f0 e0       	ldi	r31, 0x00	; 0
    1a04:	88 ec       	ldi	r24, 0xC8	; 200
    1a06:	80 83       	st	Z, r24
}
    1a08:	cf 91       	pop	r28
    1a0a:	df 91       	pop	r29
    1a0c:	08 95       	ret

00001a0e <TOV_EN>:
#include "Timer_Servo_Config.h"
#include "Timer_Servo_Int.h"
#include "Timer_Servo_Priv.h"

void TOV_EN(void)
{
    1a0e:	df 93       	push	r29
    1a10:	cf 93       	push	r28
    1a12:	cd b7       	in	r28, 0x3d	; 61
    1a14:	de b7       	in	r29, 0x3e	; 62
	TIMSK |=(1<<0);
    1a16:	a9 e5       	ldi	r26, 0x59	; 89
    1a18:	b0 e0       	ldi	r27, 0x00	; 0
    1a1a:	e9 e5       	ldi	r30, 0x59	; 89
    1a1c:	f0 e0       	ldi	r31, 0x00	; 0
    1a1e:	80 81       	ld	r24, Z
    1a20:	81 60       	ori	r24, 0x01	; 1
    1a22:	8c 93       	st	X, r24
}
    1a24:	cf 91       	pop	r28
    1a26:	df 91       	pop	r29
    1a28:	08 95       	ret

00001a2a <WR_TCNValue>:

void WR_TCNValue(u8 value)
{
    1a2a:	df 93       	push	r29
    1a2c:	cf 93       	push	r28
    1a2e:	0f 92       	push	r0
    1a30:	cd b7       	in	r28, 0x3d	; 61
    1a32:	de b7       	in	r29, 0x3e	; 62
    1a34:	89 83       	std	Y+1, r24	; 0x01
	TCNT1 =value;
    1a36:	ec e4       	ldi	r30, 0x4C	; 76
    1a38:	f0 e0       	ldi	r31, 0x00	; 0
    1a3a:	89 81       	ldd	r24, Y+1	; 0x01
    1a3c:	88 2f       	mov	r24, r24
    1a3e:	90 e0       	ldi	r25, 0x00	; 0
    1a40:	91 83       	std	Z+1, r25	; 0x01
    1a42:	80 83       	st	Z, r24
}
    1a44:	0f 90       	pop	r0
    1a46:	cf 91       	pop	r28
    1a48:	df 91       	pop	r29
    1a4a:	08 95       	ret

00001a4c <Select_Channel>:

void Select_Channel()
{
    1a4c:	df 93       	push	r29
    1a4e:	cf 93       	push	r28
    1a50:	cd b7       	in	r28, 0x3d	; 61
    1a52:	de b7       	in	r29, 0x3e	; 62
#if Selec_Ch == Channel_A
		TCCR1A |=(1<<6);
		TCCR1A |=(1<<7);

#elif Selec_Ch == Channel_B
		TCCR1A |=(1<<4);
    1a54:	af e4       	ldi	r26, 0x4F	; 79
    1a56:	b0 e0       	ldi	r27, 0x00	; 0
    1a58:	ef e4       	ldi	r30, 0x4F	; 79
    1a5a:	f0 e0       	ldi	r31, 0x00	; 0
    1a5c:	80 81       	ld	r24, Z
    1a5e:	80 61       	ori	r24, 0x10	; 16
    1a60:	8c 93       	st	X, r24
		TCCR1A |=(1<<5);
    1a62:	af e4       	ldi	r26, 0x4F	; 79
    1a64:	b0 e0       	ldi	r27, 0x00	; 0
    1a66:	ef e4       	ldi	r30, 0x4F	; 79
    1a68:	f0 e0       	ldi	r31, 0x00	; 0
    1a6a:	80 81       	ld	r24, Z
    1a6c:	80 62       	ori	r24, 0x20	; 32
    1a6e:	8c 93       	st	X, r24

#else
#endif
}
    1a70:	cf 91       	pop	r28
    1a72:	df 91       	pop	r29
    1a74:	08 95       	ret

00001a76 <Waveform_Gen_Mode>:
 * ********************************
 * *** Waveform Generation Mode function *****
 *********************************
 ***********************************/
void Waveform_Gen_Mode()
{
    1a76:	df 93       	push	r29
    1a78:	cf 93       	push	r28
    1a7a:	cd b7       	in	r28, 0x3d	; 61
    1a7c:	de b7       	in	r29, 0x3e	; 62
	 TCCR1B &=~(1<<3);
     TCCR1B &=~(1<<4);


#elif WAVE_GEN_Mode == PWM_PhCrt_MODE9
	 TCCR1A &=~(1<<1);
    1a7e:	af e4       	ldi	r26, 0x4F	; 79
    1a80:	b0 e0       	ldi	r27, 0x00	; 0
    1a82:	ef e4       	ldi	r30, 0x4F	; 79
    1a84:	f0 e0       	ldi	r31, 0x00	; 0
    1a86:	80 81       	ld	r24, Z
    1a88:	8d 7f       	andi	r24, 0xFD	; 253
    1a8a:	8c 93       	st	X, r24
     TCCR1A |=(1<<0);
    1a8c:	af e4       	ldi	r26, 0x4F	; 79
    1a8e:	b0 e0       	ldi	r27, 0x00	; 0
    1a90:	ef e4       	ldi	r30, 0x4F	; 79
    1a92:	f0 e0       	ldi	r31, 0x00	; 0
    1a94:	80 81       	ld	r24, Z
    1a96:	81 60       	ori	r24, 0x01	; 1
    1a98:	8c 93       	st	X, r24
	 TCCR1B &=~(1<<3);
    1a9a:	ae e4       	ldi	r26, 0x4E	; 78
    1a9c:	b0 e0       	ldi	r27, 0x00	; 0
    1a9e:	ee e4       	ldi	r30, 0x4E	; 78
    1aa0:	f0 e0       	ldi	r31, 0x00	; 0
    1aa2:	80 81       	ld	r24, Z
    1aa4:	87 7f       	andi	r24, 0xF7	; 247
    1aa6:	8c 93       	st	X, r24
     TCCR1B |=(1<<4);
    1aa8:	ae e4       	ldi	r26, 0x4E	; 78
    1aaa:	b0 e0       	ldi	r27, 0x00	; 0
    1aac:	ee e4       	ldi	r30, 0x4E	; 78
    1aae:	f0 e0       	ldi	r31, 0x00	; 0
    1ab0:	80 81       	ld	r24, Z
    1ab2:	80 61       	ori	r24, 0x10	; 16
    1ab4:	8c 93       	st	X, r24
     TCCR1A |=(1<<0);
	 TCCR1B |=(1<<3);
     TCCR1B |=(1<<4);
#else
#endif
}
    1ab6:	cf 91       	pop	r28
    1ab8:	df 91       	pop	r29
    1aba:	08 95       	ret

00001abc <CompareMode_Phase_correct>:
 * ********************************
 * *** Compare match function *****
 *********************************
 ***********************************/
void CompareMode_Phase_correct()
{
    1abc:	df 93       	push	r29
    1abe:	cf 93       	push	r28
    1ac0:	cd b7       	in	r28, 0x3d	; 61
    1ac2:	de b7       	in	r29, 0x3e	; 62
			TCCR1A &=~(1<<5);
			TCCR1B |=(1<<6);
			TCCR1B &=~(1<<7);

#elif CompareMode_Ph_Corr ==  Clear_OC1
			TCCR1A &=~(1<<4);
    1ac4:	af e4       	ldi	r26, 0x4F	; 79
    1ac6:	b0 e0       	ldi	r27, 0x00	; 0
    1ac8:	ef e4       	ldi	r30, 0x4F	; 79
    1aca:	f0 e0       	ldi	r31, 0x00	; 0
    1acc:	80 81       	ld	r24, Z
    1ace:	8f 7e       	andi	r24, 0xEF	; 239
    1ad0:	8c 93       	st	X, r24
			TCCR1A |=(1<<5);
    1ad2:	af e4       	ldi	r26, 0x4F	; 79
    1ad4:	b0 e0       	ldi	r27, 0x00	; 0
    1ad6:	ef e4       	ldi	r30, 0x4F	; 79
    1ad8:	f0 e0       	ldi	r31, 0x00	; 0
    1ada:	80 81       	ld	r24, Z
    1adc:	80 62       	ori	r24, 0x20	; 32
    1ade:	8c 93       	st	X, r24
			TCCR1B &=~(1<<6);
    1ae0:	ae e4       	ldi	r26, 0x4E	; 78
    1ae2:	b0 e0       	ldi	r27, 0x00	; 0
    1ae4:	ee e4       	ldi	r30, 0x4E	; 78
    1ae6:	f0 e0       	ldi	r31, 0x00	; 0
    1ae8:	80 81       	ld	r24, Z
    1aea:	8f 7b       	andi	r24, 0xBF	; 191
    1aec:	8c 93       	st	X, r24
			TCCR1B |=(1<<7);
    1aee:	ae e4       	ldi	r26, 0x4E	; 78
    1af0:	b0 e0       	ldi	r27, 0x00	; 0
    1af2:	ee e4       	ldi	r30, 0x4E	; 78
    1af4:	f0 e0       	ldi	r31, 0x00	; 0
    1af6:	80 81       	ld	r24, Z
    1af8:	80 68       	ori	r24, 0x80	; 128
    1afa:	8c 93       	st	X, r24
			TCCR1A |=(1<<5);
			TCCR1B |=(1<<6);
			TCCR1B |=(1<<7);
#else
#endif
	}
    1afc:	cf 91       	pop	r28
    1afe:	df 91       	pop	r29
    1b00:	08 95       	ret

00001b02 <Clk_Select>:
 * ********************************
 * *** Clock source selection function
 *********************************
 ***********************************/
void Clk_Select()
{
    1b02:	df 93       	push	r29
    1b04:	cf 93       	push	r28
    1b06:	cd b7       	in	r28, 0x3d	; 61
    1b08:	de b7       	in	r29, 0x3e	; 62
		TCCR1B |=(1<<1);
		TCCR1B &=~(1<<2);


#elif Clk_Selec ==  clk_64
		TCCR1B |=(1<<0);
    1b0a:	ae e4       	ldi	r26, 0x4E	; 78
    1b0c:	b0 e0       	ldi	r27, 0x00	; 0
    1b0e:	ee e4       	ldi	r30, 0x4E	; 78
    1b10:	f0 e0       	ldi	r31, 0x00	; 0
    1b12:	80 81       	ld	r24, Z
    1b14:	81 60       	ori	r24, 0x01	; 1
    1b16:	8c 93       	st	X, r24
		TCCR1B |=(1<<1);
    1b18:	ae e4       	ldi	r26, 0x4E	; 78
    1b1a:	b0 e0       	ldi	r27, 0x00	; 0
    1b1c:	ee e4       	ldi	r30, 0x4E	; 78
    1b1e:	f0 e0       	ldi	r31, 0x00	; 0
    1b20:	80 81       	ld	r24, Z
    1b22:	82 60       	ori	r24, 0x02	; 2
    1b24:	8c 93       	st	X, r24
		TCCR1B &=~(1<<2);
    1b26:	ae e4       	ldi	r26, 0x4E	; 78
    1b28:	b0 e0       	ldi	r27, 0x00	; 0
    1b2a:	ee e4       	ldi	r30, 0x4E	; 78
    1b2c:	f0 e0       	ldi	r31, 0x00	; 0
    1b2e:	80 81       	ld	r24, Z
    1b30:	8b 7f       	andi	r24, 0xFB	; 251
    1b32:	8c 93       	st	X, r24
		TCCR1B &=~(1<<0);
		TCCR1B |=(1<<1);
		TCCR1B |=(1<<2);
#else
#endif
}
    1b34:	cf 91       	pop	r28
    1b36:	df 91       	pop	r29
    1b38:	08 95       	ret

00001b3a <OCR1AH_OCR1ALValue>:


void OCR1AH_OCR1ALValue(u16 Val1)
{
    1b3a:	df 93       	push	r29
    1b3c:	cf 93       	push	r28
    1b3e:	00 d0       	rcall	.+0      	; 0x1b40 <OCR1AH_OCR1ALValue+0x6>
    1b40:	cd b7       	in	r28, 0x3d	; 61
    1b42:	de b7       	in	r29, 0x3e	; 62
    1b44:	9a 83       	std	Y+2, r25	; 0x02
    1b46:	89 83       	std	Y+1, r24	; 0x01
	OCR1AH =(Val1)>>8;
    1b48:	eb e4       	ldi	r30, 0x4B	; 75
    1b4a:	f0 e0       	ldi	r31, 0x00	; 0
    1b4c:	89 81       	ldd	r24, Y+1	; 0x01
    1b4e:	9a 81       	ldd	r25, Y+2	; 0x02
    1b50:	89 2f       	mov	r24, r25
    1b52:	99 27       	eor	r25, r25
    1b54:	80 83       	st	Z, r24
	OCR1AL =(u8)Val1;
    1b56:	ea e4       	ldi	r30, 0x4A	; 74
    1b58:	f0 e0       	ldi	r31, 0x00	; 0
    1b5a:	89 81       	ldd	r24, Y+1	; 0x01
    1b5c:	80 83       	st	Z, r24
}
    1b5e:	0f 90       	pop	r0
    1b60:	0f 90       	pop	r0
    1b62:	cf 91       	pop	r28
    1b64:	df 91       	pop	r29
    1b66:	08 95       	ret

00001b68 <OCR1AL_Value>:


void OCR1AL_Value(u8 Val1)
{
    1b68:	df 93       	push	r29
    1b6a:	cf 93       	push	r28
    1b6c:	0f 92       	push	r0
    1b6e:	cd b7       	in	r28, 0x3d	; 61
    1b70:	de b7       	in	r29, 0x3e	; 62
    1b72:	89 83       	std	Y+1, r24	; 0x01
	OCR1AL=(u8)Val1;
    1b74:	ea e4       	ldi	r30, 0x4A	; 74
    1b76:	f0 e0       	ldi	r31, 0x00	; 0
    1b78:	89 81       	ldd	r24, Y+1	; 0x01
    1b7a:	80 83       	st	Z, r24
}
    1b7c:	0f 90       	pop	r0
    1b7e:	cf 91       	pop	r28
    1b80:	df 91       	pop	r29
    1b82:	08 95       	ret

00001b84 <OCR1AH_Value>:


void OCR1AH_Value(u8 Val2)
{
    1b84:	df 93       	push	r29
    1b86:	cf 93       	push	r28
    1b88:	0f 92       	push	r0
    1b8a:	cd b7       	in	r28, 0x3d	; 61
    1b8c:	de b7       	in	r29, 0x3e	; 62
    1b8e:	89 83       	std	Y+1, r24	; 0x01
	OCR1AH=(u8)Val2;
    1b90:	eb e4       	ldi	r30, 0x4B	; 75
    1b92:	f0 e0       	ldi	r31, 0x00	; 0
    1b94:	89 81       	ldd	r24, Y+1	; 0x01
    1b96:	80 83       	st	Z, r24
}
    1b98:	0f 90       	pop	r0
    1b9a:	cf 91       	pop	r28
    1b9c:	df 91       	pop	r29
    1b9e:	08 95       	ret

00001ba0 <Motor_180_DEG>:


void Motor_180_DEG()
{
    1ba0:	df 93       	push	r29
    1ba2:	cf 93       	push	r28
    1ba4:	cd b7       	in	r28, 0x3d	; 61
    1ba6:	de b7       	in	r29, 0x3e	; 62
    OCR1BH=0 ;
    1ba8:	e9 e4       	ldi	r30, 0x49	; 73
    1baa:	f0 e0       	ldi	r31, 0x00	; 0
    1bac:	10 82       	st	Z, r1
    OCR1BL=250;
    1bae:	e8 e4       	ldi	r30, 0x48	; 72
    1bb0:	f0 e0       	ldi	r31, 0x00	; 0
    1bb2:	8a ef       	ldi	r24, 0xFA	; 250
    1bb4:	80 83       	st	Z, r24
}
    1bb6:	cf 91       	pop	r28
    1bb8:	df 91       	pop	r29
    1bba:	08 95       	ret

00001bbc <Motor_90_DEG>:


void Motor_90_DEG()
{
    1bbc:	df 93       	push	r29
    1bbe:	cf 93       	push	r28
    1bc0:	cd b7       	in	r28, 0x3d	; 61
    1bc2:	de b7       	in	r29, 0x3e	; 62
    OCR1BH=0;
    1bc4:	e9 e4       	ldi	r30, 0x49	; 73
    1bc6:	f0 e0       	ldi	r31, 0x00	; 0
    1bc8:	10 82       	st	Z, r1
    OCR1BL=125;
    1bca:	e8 e4       	ldi	r30, 0x48	; 72
    1bcc:	f0 e0       	ldi	r31, 0x00	; 0
    1bce:	8d e7       	ldi	r24, 0x7D	; 125
    1bd0:	80 83       	st	Z, r24
}
    1bd2:	cf 91       	pop	r28
    1bd4:	df 91       	pop	r29
    1bd6:	08 95       	ret

00001bd8 <Motor_0_DEG>:

void Motor_0_DEG()
{
    1bd8:	df 93       	push	r29
    1bda:	cf 93       	push	r28
    1bdc:	cd b7       	in	r28, 0x3d	; 61
    1bde:	de b7       	in	r29, 0x3e	; 62
 DDRD&=~(1<<4);
    1be0:	a1 e3       	ldi	r26, 0x31	; 49
    1be2:	b0 e0       	ldi	r27, 0x00	; 0
    1be4:	e1 e3       	ldi	r30, 0x31	; 49
    1be6:	f0 e0       	ldi	r31, 0x00	; 0
    1be8:	80 81       	ld	r24, Z
    1bea:	8f 7e       	andi	r24, 0xEF	; 239
    1bec:	8c 93       	st	X, r24
}
    1bee:	cf 91       	pop	r28
    1bf0:	df 91       	pop	r29
    1bf2:	08 95       	ret

00001bf4 <USART_Init>:
#include "USART_Config.h"
#include "USART_Private.h"
#include "util/delay.h"
u8 State = 1;
void USART_Init(u8 Mode,u8 Parity,u8 Stop_Bits,u8 Charcter_Size)
{
    1bf4:	df 93       	push	r29
    1bf6:	cf 93       	push	r28
    1bf8:	cd b7       	in	r28, 0x3d	; 61
    1bfa:	de b7       	in	r29, 0x3e	; 62
    1bfc:	2d 97       	sbiw	r28, 0x0d	; 13
    1bfe:	0f b6       	in	r0, 0x3f	; 63
    1c00:	f8 94       	cli
    1c02:	de bf       	out	0x3e, r29	; 62
    1c04:	0f be       	out	0x3f, r0	; 63
    1c06:	cd bf       	out	0x3d, r28	; 61
    1c08:	8a 83       	std	Y+2, r24	; 0x02
    1c0a:	6b 83       	std	Y+3, r22	; 0x03
    1c0c:	4c 83       	std	Y+4, r20	; 0x04
    1c0e:	2d 83       	std	Y+5, r18	; 0x05
	u8 Result=0x00;
    1c10:	19 82       	std	Y+1, r1	; 0x01
	switch(Mode)
    1c12:	8a 81       	ldd	r24, Y+2	; 0x02
    1c14:	28 2f       	mov	r18, r24
    1c16:	30 e0       	ldi	r19, 0x00	; 0
    1c18:	3d 87       	std	Y+13, r19	; 0x0d
    1c1a:	2c 87       	std	Y+12, r18	; 0x0c
    1c1c:	8c 85       	ldd	r24, Y+12	; 0x0c
    1c1e:	9d 85       	ldd	r25, Y+13	; 0x0d
    1c20:	81 30       	cpi	r24, 0x01	; 1
    1c22:	91 05       	cpc	r25, r1
    1c24:	51 f0       	breq	.+20     	; 0x1c3a <USART_Init+0x46>
    1c26:	2c 85       	ldd	r18, Y+12	; 0x0c
    1c28:	3d 85       	ldd	r19, Y+13	; 0x0d
    1c2a:	22 30       	cpi	r18, 0x02	; 2
    1c2c:	31 05       	cpc	r19, r1
    1c2e:	61 f0       	breq	.+24     	; 0x1c48 <USART_Init+0x54>
    1c30:	8c 85       	ldd	r24, Y+12	; 0x0c
    1c32:	9d 85       	ldd	r25, Y+13	; 0x0d
    1c34:	00 97       	sbiw	r24, 0x00	; 0
    1c36:	b1 f0       	breq	.+44     	; 0x1c64 <USART_Init+0x70>
    1c38:	18 c0       	rjmp	.+48     	; 0x1c6a <USART_Init+0x76>
	{
	case Asynch_Noraml_Mode:
		Result &=~(1<<UMSEL);
    1c3a:	89 81       	ldd	r24, Y+1	; 0x01
    1c3c:	8f 7b       	andi	r24, 0xBF	; 191
    1c3e:	89 83       	std	Y+1, r24	; 0x01
		State = Asynch_Noraml_Mode;
    1c40:	81 e0       	ldi	r24, 0x01	; 1
    1c42:	80 93 16 04 	sts	0x0416, r24
    1c46:	11 c0       	rjmp	.+34     	; 0x1c6a <USART_Init+0x76>
		break;
	case Asynch_Double_Speed_Mode:
		Result &=~(1<<UMSEL);
    1c48:	89 81       	ldd	r24, Y+1	; 0x01
    1c4a:	8f 7b       	andi	r24, 0xBF	; 191
    1c4c:	89 83       	std	Y+1, r24	; 0x01
		UCSRA  |= (1<<U2X);
    1c4e:	ab e2       	ldi	r26, 0x2B	; 43
    1c50:	b0 e0       	ldi	r27, 0x00	; 0
    1c52:	eb e2       	ldi	r30, 0x2B	; 43
    1c54:	f0 e0       	ldi	r31, 0x00	; 0
    1c56:	80 81       	ld	r24, Z
    1c58:	82 60       	ori	r24, 0x02	; 2
    1c5a:	8c 93       	st	X, r24
		State = Asynch_Double_Speed_Mode;
    1c5c:	82 e0       	ldi	r24, 0x02	; 2
    1c5e:	80 93 16 04 	sts	0x0416, r24
    1c62:	03 c0       	rjmp	.+6      	; 0x1c6a <USART_Init+0x76>
		break;
	case Synch:
		Result |=(1<<UMSEL);
    1c64:	89 81       	ldd	r24, Y+1	; 0x01
    1c66:	80 64       	ori	r24, 0x40	; 64
    1c68:	89 83       	std	Y+1, r24	; 0x01
		break;
	default:
		break;
	}
	switch(Parity)
    1c6a:	8b 81       	ldd	r24, Y+3	; 0x03
    1c6c:	28 2f       	mov	r18, r24
    1c6e:	30 e0       	ldi	r19, 0x00	; 0
    1c70:	3b 87       	std	Y+11, r19	; 0x0b
    1c72:	2a 87       	std	Y+10, r18	; 0x0a
    1c74:	8a 85       	ldd	r24, Y+10	; 0x0a
    1c76:	9b 85       	ldd	r25, Y+11	; 0x0b
    1c78:	81 30       	cpi	r24, 0x01	; 1
    1c7a:	91 05       	cpc	r25, r1
    1c7c:	b9 f0       	breq	.+46     	; 0x1cac <USART_Init+0xb8>
    1c7e:	2a 85       	ldd	r18, Y+10	; 0x0a
    1c80:	3b 85       	ldd	r19, Y+11	; 0x0b
    1c82:	22 30       	cpi	r18, 0x02	; 2
    1c84:	31 05       	cpc	r19, r1
    1c86:	59 f0       	breq	.+22     	; 0x1c9e <USART_Init+0xaa>
    1c88:	8a 85       	ldd	r24, Y+10	; 0x0a
    1c8a:	9b 85       	ldd	r25, Y+11	; 0x0b
    1c8c:	00 97       	sbiw	r24, 0x00	; 0
    1c8e:	a1 f4       	brne	.+40     	; 0x1cb8 <USART_Init+0xc4>
	{
	case DISABLE:
		Result &=~(1<<UPM0);
    1c90:	89 81       	ldd	r24, Y+1	; 0x01
    1c92:	8f 7e       	andi	r24, 0xEF	; 239
    1c94:	89 83       	std	Y+1, r24	; 0x01
		Result &=~(1<<UPM1);
    1c96:	89 81       	ldd	r24, Y+1	; 0x01
    1c98:	8f 7d       	andi	r24, 0xDF	; 223
    1c9a:	89 83       	std	Y+1, r24	; 0x01
    1c9c:	0d c0       	rjmp	.+26     	; 0x1cb8 <USART_Init+0xc4>
		break;
	case EVEN:
		Result &=~(1<<UPM0);
    1c9e:	89 81       	ldd	r24, Y+1	; 0x01
    1ca0:	8f 7e       	andi	r24, 0xEF	; 239
    1ca2:	89 83       	std	Y+1, r24	; 0x01
		Result |= (1<<UPM1);
    1ca4:	89 81       	ldd	r24, Y+1	; 0x01
    1ca6:	80 62       	ori	r24, 0x20	; 32
    1ca8:	89 83       	std	Y+1, r24	; 0x01
    1caa:	06 c0       	rjmp	.+12     	; 0x1cb8 <USART_Init+0xc4>
		break;
	case ODD:
		Result |= (1<<UPM0);
    1cac:	89 81       	ldd	r24, Y+1	; 0x01
    1cae:	80 61       	ori	r24, 0x10	; 16
    1cb0:	89 83       	std	Y+1, r24	; 0x01
		Result |= (1<<UPM1);
    1cb2:	89 81       	ldd	r24, Y+1	; 0x01
    1cb4:	80 62       	ori	r24, 0x20	; 32
    1cb6:	89 83       	std	Y+1, r24	; 0x01
		break;
	default:
		break;
	}
	switch(Stop_Bits)
    1cb8:	8c 81       	ldd	r24, Y+4	; 0x04
    1cba:	28 2f       	mov	r18, r24
    1cbc:	30 e0       	ldi	r19, 0x00	; 0
    1cbe:	39 87       	std	Y+9, r19	; 0x09
    1cc0:	28 87       	std	Y+8, r18	; 0x08
    1cc2:	88 85       	ldd	r24, Y+8	; 0x08
    1cc4:	99 85       	ldd	r25, Y+9	; 0x09
    1cc6:	81 30       	cpi	r24, 0x01	; 1
    1cc8:	91 05       	cpc	r25, r1
    1cca:	31 f0       	breq	.+12     	; 0x1cd8 <USART_Init+0xe4>
    1ccc:	28 85       	ldd	r18, Y+8	; 0x08
    1cce:	39 85       	ldd	r19, Y+9	; 0x09
    1cd0:	22 30       	cpi	r18, 0x02	; 2
    1cd2:	31 05       	cpc	r19, r1
    1cd4:	29 f0       	breq	.+10     	; 0x1ce0 <USART_Init+0xec>
    1cd6:	07 c0       	rjmp	.+14     	; 0x1ce6 <USART_Init+0xf2>
	{
	case 1 :
		Result &=~(1<<USBS);
    1cd8:	89 81       	ldd	r24, Y+1	; 0x01
    1cda:	87 7f       	andi	r24, 0xF7	; 247
    1cdc:	89 83       	std	Y+1, r24	; 0x01
    1cde:	03 c0       	rjmp	.+6      	; 0x1ce6 <USART_Init+0xf2>
		break;
	case 2 :
		Result |= (1<<USBS);
    1ce0:	89 81       	ldd	r24, Y+1	; 0x01
    1ce2:	88 60       	ori	r24, 0x08	; 8
    1ce4:	89 83       	std	Y+1, r24	; 0x01
		break;
	default:
		break;
	}
   switch(Charcter_Size)
    1ce6:	8d 81       	ldd	r24, Y+5	; 0x05
    1ce8:	28 2f       	mov	r18, r24
    1cea:	30 e0       	ldi	r19, 0x00	; 0
    1cec:	3f 83       	std	Y+7, r19	; 0x07
    1cee:	2e 83       	std	Y+6, r18	; 0x06
    1cf0:	8e 81       	ldd	r24, Y+6	; 0x06
    1cf2:	9f 81       	ldd	r25, Y+7	; 0x07
    1cf4:	87 30       	cpi	r24, 0x07	; 7
    1cf6:	91 05       	cpc	r25, r1
    1cf8:	b9 f1       	breq	.+110    	; 0x1d68 <USART_Init+0x174>
    1cfa:	2e 81       	ldd	r18, Y+6	; 0x06
    1cfc:	3f 81       	ldd	r19, Y+7	; 0x07
    1cfe:	28 30       	cpi	r18, 0x08	; 8
    1d00:	31 05       	cpc	r19, r1
    1d02:	5c f4       	brge	.+22     	; 0x1d1a <USART_Init+0x126>
    1d04:	8e 81       	ldd	r24, Y+6	; 0x06
    1d06:	9f 81       	ldd	r25, Y+7	; 0x07
    1d08:	85 30       	cpi	r24, 0x05	; 5
    1d0a:	91 05       	cpc	r25, r1
    1d0c:	89 f0       	breq	.+34     	; 0x1d30 <USART_Init+0x13c>
    1d0e:	2e 81       	ldd	r18, Y+6	; 0x06
    1d10:	3f 81       	ldd	r19, Y+7	; 0x07
    1d12:	26 30       	cpi	r18, 0x06	; 6
    1d14:	31 05       	cpc	r19, r1
    1d16:	d1 f0       	breq	.+52     	; 0x1d4c <USART_Init+0x158>
    1d18:	50 c0       	rjmp	.+160    	; 0x1dba <USART_Init+0x1c6>
    1d1a:	8e 81       	ldd	r24, Y+6	; 0x06
    1d1c:	9f 81       	ldd	r25, Y+7	; 0x07
    1d1e:	88 30       	cpi	r24, 0x08	; 8
    1d20:	91 05       	cpc	r25, r1
    1d22:	81 f1       	breq	.+96     	; 0x1d84 <USART_Init+0x190>
    1d24:	2e 81       	ldd	r18, Y+6	; 0x06
    1d26:	3f 81       	ldd	r19, Y+7	; 0x07
    1d28:	29 30       	cpi	r18, 0x09	; 9
    1d2a:	31 05       	cpc	r19, r1
    1d2c:	c9 f1       	breq	.+114    	; 0x1da0 <USART_Init+0x1ac>
    1d2e:	45 c0       	rjmp	.+138    	; 0x1dba <USART_Init+0x1c6>
   {
   case 5:
	   Result &=~(1<<UCSZ0);
    1d30:	89 81       	ldd	r24, Y+1	; 0x01
    1d32:	8d 7f       	andi	r24, 0xFD	; 253
    1d34:	89 83       	std	Y+1, r24	; 0x01
	   Result &=~(1<<UCSZ1);
    1d36:	89 81       	ldd	r24, Y+1	; 0x01
    1d38:	8b 7f       	andi	r24, 0xFB	; 251
    1d3a:	89 83       	std	Y+1, r24	; 0x01
	   UCSRB  &=~(1<<UCSZ2);
    1d3c:	aa e2       	ldi	r26, 0x2A	; 42
    1d3e:	b0 e0       	ldi	r27, 0x00	; 0
    1d40:	ea e2       	ldi	r30, 0x2A	; 42
    1d42:	f0 e0       	ldi	r31, 0x00	; 0
    1d44:	80 81       	ld	r24, Z
    1d46:	8b 7f       	andi	r24, 0xFB	; 251
    1d48:	8c 93       	st	X, r24
    1d4a:	37 c0       	rjmp	.+110    	; 0x1dba <USART_Init+0x1c6>
	   break;
   case 6:
	   Result |= (1<<UCSZ0);
    1d4c:	89 81       	ldd	r24, Y+1	; 0x01
    1d4e:	82 60       	ori	r24, 0x02	; 2
    1d50:	89 83       	std	Y+1, r24	; 0x01
	   Result &=~(1<<UCSZ1);
    1d52:	89 81       	ldd	r24, Y+1	; 0x01
    1d54:	8b 7f       	andi	r24, 0xFB	; 251
    1d56:	89 83       	std	Y+1, r24	; 0x01
	   UCSRB  &=~(1<<UCSZ2);
    1d58:	aa e2       	ldi	r26, 0x2A	; 42
    1d5a:	b0 e0       	ldi	r27, 0x00	; 0
    1d5c:	ea e2       	ldi	r30, 0x2A	; 42
    1d5e:	f0 e0       	ldi	r31, 0x00	; 0
    1d60:	80 81       	ld	r24, Z
    1d62:	8b 7f       	andi	r24, 0xFB	; 251
    1d64:	8c 93       	st	X, r24
    1d66:	29 c0       	rjmp	.+82     	; 0x1dba <USART_Init+0x1c6>
	   break;
   case 7:
	   Result &=~(1<<UCSZ0);
    1d68:	89 81       	ldd	r24, Y+1	; 0x01
    1d6a:	8d 7f       	andi	r24, 0xFD	; 253
    1d6c:	89 83       	std	Y+1, r24	; 0x01
	   Result |= (1<<UCSZ1);
    1d6e:	89 81       	ldd	r24, Y+1	; 0x01
    1d70:	84 60       	ori	r24, 0x04	; 4
    1d72:	89 83       	std	Y+1, r24	; 0x01
	   UCSRB  &=~(1<<UCSZ2);
    1d74:	aa e2       	ldi	r26, 0x2A	; 42
    1d76:	b0 e0       	ldi	r27, 0x00	; 0
    1d78:	ea e2       	ldi	r30, 0x2A	; 42
    1d7a:	f0 e0       	ldi	r31, 0x00	; 0
    1d7c:	80 81       	ld	r24, Z
    1d7e:	8b 7f       	andi	r24, 0xFB	; 251
    1d80:	8c 93       	st	X, r24
    1d82:	1b c0       	rjmp	.+54     	; 0x1dba <USART_Init+0x1c6>
	   break;
   case 8:
	   Result |= (1<<UCSZ0);
    1d84:	89 81       	ldd	r24, Y+1	; 0x01
    1d86:	82 60       	ori	r24, 0x02	; 2
    1d88:	89 83       	std	Y+1, r24	; 0x01
	   Result |= (1<<UCSZ1);
    1d8a:	89 81       	ldd	r24, Y+1	; 0x01
    1d8c:	84 60       	ori	r24, 0x04	; 4
    1d8e:	89 83       	std	Y+1, r24	; 0x01
	   UCSRB  &=~(1<<UCSZ2);
    1d90:	aa e2       	ldi	r26, 0x2A	; 42
    1d92:	b0 e0       	ldi	r27, 0x00	; 0
    1d94:	ea e2       	ldi	r30, 0x2A	; 42
    1d96:	f0 e0       	ldi	r31, 0x00	; 0
    1d98:	80 81       	ld	r24, Z
    1d9a:	8b 7f       	andi	r24, 0xFB	; 251
    1d9c:	8c 93       	st	X, r24
    1d9e:	0d c0       	rjmp	.+26     	; 0x1dba <USART_Init+0x1c6>
	   break;
   case 9:
	   Result |= (1<<UCSZ0);
    1da0:	89 81       	ldd	r24, Y+1	; 0x01
    1da2:	82 60       	ori	r24, 0x02	; 2
    1da4:	89 83       	std	Y+1, r24	; 0x01
	   Result |= (1<<UCSZ1);
    1da6:	89 81       	ldd	r24, Y+1	; 0x01
    1da8:	84 60       	ori	r24, 0x04	; 4
    1daa:	89 83       	std	Y+1, r24	; 0x01
	   UCSRB  |= (1<<UCSZ2);
    1dac:	aa e2       	ldi	r26, 0x2A	; 42
    1dae:	b0 e0       	ldi	r27, 0x00	; 0
    1db0:	ea e2       	ldi	r30, 0x2A	; 42
    1db2:	f0 e0       	ldi	r31, 0x00	; 0
    1db4:	80 81       	ld	r24, Z
    1db6:	84 60       	ori	r24, 0x04	; 4
    1db8:	8c 93       	st	X, r24
	   break;
   default:
	   break;
   }
   Result |=(1<<USREL);
    1dba:	89 81       	ldd	r24, Y+1	; 0x01
    1dbc:	80 68       	ori	r24, 0x80	; 128
    1dbe:	89 83       	std	Y+1, r24	; 0x01
   UCSRC=Result;
    1dc0:	e0 e4       	ldi	r30, 0x40	; 64
    1dc2:	f0 e0       	ldi	r31, 0x00	; 0
    1dc4:	89 81       	ldd	r24, Y+1	; 0x01
    1dc6:	80 83       	st	Z, r24
}
    1dc8:	2d 96       	adiw	r28, 0x0d	; 13
    1dca:	0f b6       	in	r0, 0x3f	; 63
    1dcc:	f8 94       	cli
    1dce:	de bf       	out	0x3e, r29	; 62
    1dd0:	0f be       	out	0x3f, r0	; 63
    1dd2:	cd bf       	out	0x3d, r28	; 61
    1dd4:	cf 91       	pop	r28
    1dd6:	df 91       	pop	r29
    1dd8:	08 95       	ret

00001dda <USART_TX_Enabel>:
void USART_TX_Enabel()
{
    1dda:	df 93       	push	r29
    1ddc:	cf 93       	push	r28
    1dde:	cd b7       	in	r28, 0x3d	; 61
    1de0:	de b7       	in	r29, 0x3e	; 62
	UCSRB |=(1<<TXEN);
    1de2:	aa e2       	ldi	r26, 0x2A	; 42
    1de4:	b0 e0       	ldi	r27, 0x00	; 0
    1de6:	ea e2       	ldi	r30, 0x2A	; 42
    1de8:	f0 e0       	ldi	r31, 0x00	; 0
    1dea:	80 81       	ld	r24, Z
    1dec:	88 60       	ori	r24, 0x08	; 8
    1dee:	8c 93       	st	X, r24
}
    1df0:	cf 91       	pop	r28
    1df2:	df 91       	pop	r29
    1df4:	08 95       	ret

00001df6 <USART_RX_Enabel>:
void USART_RX_Enabel()
{
    1df6:	df 93       	push	r29
    1df8:	cf 93       	push	r28
    1dfa:	cd b7       	in	r28, 0x3d	; 61
    1dfc:	de b7       	in	r29, 0x3e	; 62
	UCSRB |=(1<<RXEN);
    1dfe:	aa e2       	ldi	r26, 0x2A	; 42
    1e00:	b0 e0       	ldi	r27, 0x00	; 0
    1e02:	ea e2       	ldi	r30, 0x2A	; 42
    1e04:	f0 e0       	ldi	r31, 0x00	; 0
    1e06:	80 81       	ld	r24, Z
    1e08:	80 61       	ori	r24, 0x10	; 16
    1e0a:	8c 93       	st	X, r24
}
    1e0c:	cf 91       	pop	r28
    1e0e:	df 91       	pop	r29
    1e10:	08 95       	ret

00001e12 <USART_TX_IE>:
void USART_TX_IE()
{
    1e12:	df 93       	push	r29
    1e14:	cf 93       	push	r28
    1e16:	cd b7       	in	r28, 0x3d	; 61
    1e18:	de b7       	in	r29, 0x3e	; 62
	UCSRB |=(1<<TXCIE);
    1e1a:	aa e2       	ldi	r26, 0x2A	; 42
    1e1c:	b0 e0       	ldi	r27, 0x00	; 0
    1e1e:	ea e2       	ldi	r30, 0x2A	; 42
    1e20:	f0 e0       	ldi	r31, 0x00	; 0
    1e22:	80 81       	ld	r24, Z
    1e24:	80 64       	ori	r24, 0x40	; 64
    1e26:	8c 93       	st	X, r24
}
    1e28:	cf 91       	pop	r28
    1e2a:	df 91       	pop	r29
    1e2c:	08 95       	ret

00001e2e <USART_RX_IE>:
void USART_RX_IE()
{
    1e2e:	df 93       	push	r29
    1e30:	cf 93       	push	r28
    1e32:	cd b7       	in	r28, 0x3d	; 61
    1e34:	de b7       	in	r29, 0x3e	; 62
	UCSRB |=(1<<RXCIE);
    1e36:	aa e2       	ldi	r26, 0x2A	; 42
    1e38:	b0 e0       	ldi	r27, 0x00	; 0
    1e3a:	ea e2       	ldi	r30, 0x2A	; 42
    1e3c:	f0 e0       	ldi	r31, 0x00	; 0
    1e3e:	80 81       	ld	r24, Z
    1e40:	80 68       	ori	r24, 0x80	; 128
    1e42:	8c 93       	st	X, r24
}
    1e44:	cf 91       	pop	r28
    1e46:	df 91       	pop	r29
    1e48:	08 95       	ret

00001e4a <USART_RX_ID>:
void USART_RX_ID()
{
    1e4a:	df 93       	push	r29
    1e4c:	cf 93       	push	r28
    1e4e:	cd b7       	in	r28, 0x3d	; 61
    1e50:	de b7       	in	r29, 0x3e	; 62
	UCSRB &=~(1<<RXCIE);
    1e52:	aa e2       	ldi	r26, 0x2A	; 42
    1e54:	b0 e0       	ldi	r27, 0x00	; 0
    1e56:	ea e2       	ldi	r30, 0x2A	; 42
    1e58:	f0 e0       	ldi	r31, 0x00	; 0
    1e5a:	80 81       	ld	r24, Z
    1e5c:	8f 77       	andi	r24, 0x7F	; 127
    1e5e:	8c 93       	st	X, r24
}
    1e60:	cf 91       	pop	r28
    1e62:	df 91       	pop	r29
    1e64:	08 95       	ret

00001e66 <USART_UDRE_IE>:
void USART_UDRE_IE()
{
    1e66:	df 93       	push	r29
    1e68:	cf 93       	push	r28
    1e6a:	cd b7       	in	r28, 0x3d	; 61
    1e6c:	de b7       	in	r29, 0x3e	; 62
	UCSRB |=(1<<UDRIE);
    1e6e:	aa e2       	ldi	r26, 0x2A	; 42
    1e70:	b0 e0       	ldi	r27, 0x00	; 0
    1e72:	ea e2       	ldi	r30, 0x2A	; 42
    1e74:	f0 e0       	ldi	r31, 0x00	; 0
    1e76:	80 81       	ld	r24, Z
    1e78:	80 62       	ori	r24, 0x20	; 32
    1e7a:	8c 93       	st	X, r24
}
    1e7c:	cf 91       	pop	r28
    1e7e:	df 91       	pop	r29
    1e80:	08 95       	ret

00001e82 <USART_Baud_Rate>:
void USART_Baud_Rate()
{
    1e82:	df 93       	push	r29
    1e84:	cf 93       	push	r28
    1e86:	cd b7       	in	r28, 0x3d	; 61
    1e88:	de b7       	in	r29, 0x3e	; 62
	UBRRL =103;
    1e8a:	e9 e2       	ldi	r30, 0x29	; 41
    1e8c:	f0 e0       	ldi	r31, 0x00	; 0
    1e8e:	87 e6       	ldi	r24, 0x67	; 103
    1e90:	80 83       	st	Z, r24
	UBRRH =0x00;
    1e92:	e0 e4       	ldi	r30, 0x40	; 64
    1e94:	f0 e0       	ldi	r31, 0x00	; 0
    1e96:	10 82       	st	Z, r1
}
    1e98:	cf 91       	pop	r28
    1e9a:	df 91       	pop	r29
    1e9c:	08 95       	ret

00001e9e <USART_Send_Char>:
void USART_Send_Char(u8 Data)
{
    1e9e:	df 93       	push	r29
    1ea0:	cf 93       	push	r28
    1ea2:	0f 92       	push	r0
    1ea4:	cd b7       	in	r28, 0x3d	; 61
    1ea6:	de b7       	in	r29, 0x3e	; 62
    1ea8:	89 83       	std	Y+1, r24	; 0x01
	while(!((UCSRA>>5)&1)); /*UDR Empty Register Method*/
    1eaa:	eb e2       	ldi	r30, 0x2B	; 43
    1eac:	f0 e0       	ldi	r31, 0x00	; 0
    1eae:	80 81       	ld	r24, Z
    1eb0:	82 95       	swap	r24
    1eb2:	86 95       	lsr	r24
    1eb4:	87 70       	andi	r24, 0x07	; 7
    1eb6:	88 2f       	mov	r24, r24
    1eb8:	90 e0       	ldi	r25, 0x00	; 0
    1eba:	81 70       	andi	r24, 0x01	; 1
    1ebc:	90 70       	andi	r25, 0x00	; 0
    1ebe:	00 97       	sbiw	r24, 0x00	; 0
    1ec0:	a1 f3       	breq	.-24     	; 0x1eaa <USART_Send_Char+0xc>
	UDR = Data;
    1ec2:	ec e2       	ldi	r30, 0x2C	; 44
    1ec4:	f0 e0       	ldi	r31, 0x00	; 0
    1ec6:	89 81       	ldd	r24, Y+1	; 0x01
    1ec8:	80 83       	st	Z, r24


}
    1eca:	0f 90       	pop	r0
    1ecc:	cf 91       	pop	r28
    1ece:	df 91       	pop	r29
    1ed0:	08 95       	ret

00001ed2 <USART_Recive_Char>:
u8 USART_Recive_Char()
{
    1ed2:	df 93       	push	r29
    1ed4:	cf 93       	push	r28
    1ed6:	cd b7       	in	r28, 0x3d	; 61
    1ed8:	de b7       	in	r29, 0x3e	; 62
	while(((UCSRA>>7)&1)==0);
    1eda:	eb e2       	ldi	r30, 0x2B	; 43
    1edc:	f0 e0       	ldi	r31, 0x00	; 0
    1ede:	80 81       	ld	r24, Z
    1ee0:	88 23       	and	r24, r24
    1ee2:	dc f7       	brge	.-10     	; 0x1eda <USART_Recive_Char+0x8>
	return UDR;
    1ee4:	ec e2       	ldi	r30, 0x2C	; 44
    1ee6:	f0 e0       	ldi	r31, 0x00	; 0
    1ee8:	80 81       	ld	r24, Z

}
    1eea:	cf 91       	pop	r28
    1eec:	df 91       	pop	r29
    1eee:	08 95       	ret

00001ef0 <USART_Send_String>:
void USART_Send_String(char *T_Data)
{
    1ef0:	df 93       	push	r29
    1ef2:	cf 93       	push	r28
    1ef4:	00 d0       	rcall	.+0      	; 0x1ef6 <USART_Send_String+0x6>
    1ef6:	0f 92       	push	r0
    1ef8:	cd b7       	in	r28, 0x3d	; 61
    1efa:	de b7       	in	r29, 0x3e	; 62
    1efc:	9b 83       	std	Y+3, r25	; 0x03
    1efe:	8a 83       	std	Y+2, r24	; 0x02

	u8 Str_Size = 0;
    1f00:	19 82       	std	Y+1, r1	; 0x01
    1f02:	1b c0       	rjmp	.+54     	; 0x1f3a <USART_Send_String+0x4a>
	while(T_Data[Str_Size] != 0)
	{
		while(!((UCSRA>>5)&1)); /*UDR Empty Register Method*/
    1f04:	eb e2       	ldi	r30, 0x2B	; 43
    1f06:	f0 e0       	ldi	r31, 0x00	; 0
    1f08:	80 81       	ld	r24, Z
    1f0a:	82 95       	swap	r24
    1f0c:	86 95       	lsr	r24
    1f0e:	87 70       	andi	r24, 0x07	; 7
    1f10:	88 2f       	mov	r24, r24
    1f12:	90 e0       	ldi	r25, 0x00	; 0
    1f14:	81 70       	andi	r24, 0x01	; 1
    1f16:	90 70       	andi	r25, 0x00	; 0
    1f18:	00 97       	sbiw	r24, 0x00	; 0
    1f1a:	a1 f3       	breq	.-24     	; 0x1f04 <USART_Send_String+0x14>
		UDR = T_Data[Str_Size];
    1f1c:	ac e2       	ldi	r26, 0x2C	; 44
    1f1e:	b0 e0       	ldi	r27, 0x00	; 0
    1f20:	89 81       	ldd	r24, Y+1	; 0x01
    1f22:	28 2f       	mov	r18, r24
    1f24:	30 e0       	ldi	r19, 0x00	; 0
    1f26:	8a 81       	ldd	r24, Y+2	; 0x02
    1f28:	9b 81       	ldd	r25, Y+3	; 0x03
    1f2a:	fc 01       	movw	r30, r24
    1f2c:	e2 0f       	add	r30, r18
    1f2e:	f3 1f       	adc	r31, r19
    1f30:	80 81       	ld	r24, Z
    1f32:	8c 93       	st	X, r24
		Str_Size ++;
    1f34:	89 81       	ldd	r24, Y+1	; 0x01
    1f36:	8f 5f       	subi	r24, 0xFF	; 255
    1f38:	89 83       	std	Y+1, r24	; 0x01
}
void USART_Send_String(char *T_Data)
{

	u8 Str_Size = 0;
	while(T_Data[Str_Size] != 0)
    1f3a:	89 81       	ldd	r24, Y+1	; 0x01
    1f3c:	28 2f       	mov	r18, r24
    1f3e:	30 e0       	ldi	r19, 0x00	; 0
    1f40:	8a 81       	ldd	r24, Y+2	; 0x02
    1f42:	9b 81       	ldd	r25, Y+3	; 0x03
    1f44:	fc 01       	movw	r30, r24
    1f46:	e2 0f       	add	r30, r18
    1f48:	f3 1f       	adc	r31, r19
    1f4a:	80 81       	ld	r24, Z
    1f4c:	88 23       	and	r24, r24
    1f4e:	d1 f6       	brne	.-76     	; 0x1f04 <USART_Send_String+0x14>
	{
		while(!((UCSRA>>5)&1)); /*UDR Empty Register Method*/
		UDR = T_Data[Str_Size];
		Str_Size ++;
	}
}
    1f50:	0f 90       	pop	r0
    1f52:	0f 90       	pop	r0
    1f54:	0f 90       	pop	r0
    1f56:	cf 91       	pop	r28
    1f58:	df 91       	pop	r29
    1f5a:	08 95       	ret

00001f5c <USART_Recive_String>:
void USART_Recive_String(u8 *R_Data)
{
    1f5c:	df 93       	push	r29
    1f5e:	cf 93       	push	r28
    1f60:	00 d0       	rcall	.+0      	; 0x1f62 <USART_Recive_String+0x6>
    1f62:	00 d0       	rcall	.+0      	; 0x1f64 <USART_Recive_String+0x8>
    1f64:	0f 92       	push	r0
    1f66:	cd b7       	in	r28, 0x3d	; 61
    1f68:	de b7       	in	r29, 0x3e	; 62
    1f6a:	9d 83       	std	Y+5, r25	; 0x05
    1f6c:	8c 83       	std	Y+4, r24	; 0x04
	u8 End,Str_Size = 0,New_Data;
    1f6e:	1a 82       	std	Y+2, r1	; 0x02
	while(((UCSRA>>7)&1)==0);
    1f70:	eb e2       	ldi	r30, 0x2B	; 43
    1f72:	f0 e0       	ldi	r31, 0x00	; 0
    1f74:	80 81       	ld	r24, Z
    1f76:	88 23       	and	r24, r24
    1f78:	dc f7       	brge	.-10     	; 0x1f70 <USART_Recive_String+0x14>
	End = UDR;
    1f7a:	ec e2       	ldi	r30, 0x2C	; 44
    1f7c:	f0 e0       	ldi	r31, 0x00	; 0
    1f7e:	80 81       	ld	r24, Z
    1f80:	8b 83       	std	Y+3, r24	; 0x03
	while(1)
	{
		while(((UCSRA>>7)&1)==0);
    1f82:	eb e2       	ldi	r30, 0x2B	; 43
    1f84:	f0 e0       	ldi	r31, 0x00	; 0
    1f86:	80 81       	ld	r24, Z
    1f88:	88 23       	and	r24, r24
    1f8a:	dc f7       	brge	.-10     	; 0x1f82 <USART_Recive_String+0x26>
		New_Data = UDR;
    1f8c:	ec e2       	ldi	r30, 0x2C	; 44
    1f8e:	f0 e0       	ldi	r31, 0x00	; 0
    1f90:	80 81       	ld	r24, Z
    1f92:	89 83       	std	Y+1, r24	; 0x01
		if(New_Data==End)
    1f94:	99 81       	ldd	r25, Y+1	; 0x01
    1f96:	8b 81       	ldd	r24, Y+3	; 0x03
    1f98:	98 17       	cp	r25, r24
    1f9a:	89 f4       	brne	.+34     	; 0x1fbe <USART_Recive_String+0x62>
		{
			R_Data[Str_Size]=0;
    1f9c:	8a 81       	ldd	r24, Y+2	; 0x02
    1f9e:	28 2f       	mov	r18, r24
    1fa0:	30 e0       	ldi	r19, 0x00	; 0
    1fa2:	8c 81       	ldd	r24, Y+4	; 0x04
    1fa4:	9d 81       	ldd	r25, Y+5	; 0x05
    1fa6:	fc 01       	movw	r30, r24
    1fa8:	e2 0f       	add	r30, r18
    1faa:	f3 1f       	adc	r31, r19
    1fac:	10 82       	st	Z, r1
			break;
		}
		R_Data[Str_Size++]=New_Data;
		}
}
    1fae:	0f 90       	pop	r0
    1fb0:	0f 90       	pop	r0
    1fb2:	0f 90       	pop	r0
    1fb4:	0f 90       	pop	r0
    1fb6:	0f 90       	pop	r0
    1fb8:	cf 91       	pop	r28
    1fba:	df 91       	pop	r29
    1fbc:	08 95       	ret
		if(New_Data==End)
		{
			R_Data[Str_Size]=0;
			break;
		}
		R_Data[Str_Size++]=New_Data;
    1fbe:	8a 81       	ldd	r24, Y+2	; 0x02
    1fc0:	28 2f       	mov	r18, r24
    1fc2:	30 e0       	ldi	r19, 0x00	; 0
    1fc4:	8c 81       	ldd	r24, Y+4	; 0x04
    1fc6:	9d 81       	ldd	r25, Y+5	; 0x05
    1fc8:	fc 01       	movw	r30, r24
    1fca:	e2 0f       	add	r30, r18
    1fcc:	f3 1f       	adc	r31, r19
    1fce:	89 81       	ldd	r24, Y+1	; 0x01
    1fd0:	80 83       	st	Z, r24
    1fd2:	8a 81       	ldd	r24, Y+2	; 0x02
    1fd4:	8f 5f       	subi	r24, 0xFF	; 255
    1fd6:	8a 83       	std	Y+2, r24	; 0x02
    1fd8:	d4 cf       	rjmp	.-88     	; 0x1f82 <USART_Recive_String+0x26>

00001fda <AC_On>:
 */
#include "../MCAL/AVR_REG.h"
#include "../MCAL/Timer0_Int.h"

void AC_On()
{
    1fda:	df 93       	push	r29
    1fdc:	cf 93       	push	r28
    1fde:	cd b7       	in	r28, 0x3d	; 61
    1fe0:	de b7       	in	r29, 0x3e	; 62
	MotOr_On();
    1fe2:	0e 94 fc 0c 	call	0x19f8	; 0x19f8 <MotOr_On>

}
    1fe6:	cf 91       	pop	r28
    1fe8:	df 91       	pop	r29
    1fea:	08 95       	ret

00001fec <AC_Off>:
void AC_Off()
{
    1fec:	df 93       	push	r29
    1fee:	cf 93       	push	r28
    1ff0:	cd b7       	in	r28, 0x3d	; 61
    1ff2:	de b7       	in	r29, 0x3e	; 62
	 MotOr_0ff();
    1ff4:	0e 94 f2 0c 	call	0x19e4	; 0x19e4 <MotOr_0ff>
}
    1ff8:	cf 91       	pop	r28
    1ffa:	df 91       	pop	r29
    1ffc:	08 95       	ret

00001ffe <AC_Init>:
void AC_Init()
{
    1ffe:	df 93       	push	r29
    2000:	cf 93       	push	r28
    2002:	cd b7       	in	r28, 0x3d	; 61
    2004:	de b7       	in	r29, 0x3e	; 62
	DDRB|=(1<<3);
    2006:	a7 e3       	ldi	r26, 0x37	; 55
    2008:	b0 e0       	ldi	r27, 0x00	; 0
    200a:	e7 e3       	ldi	r30, 0x37	; 55
    200c:	f0 e0       	ldi	r31, 0x00	; 0
    200e:	80 81       	ld	r24, Z
    2010:	88 60       	ori	r24, 0x08	; 8
    2012:	8c 93       	st	X, r24
	Waveform0_Gen_Mode();
    2014:	0e 94 9e 0c 	call	0x193c	; 0x193c <Waveform0_Gen_Mode>
	Compare0_Match_Out_Mode();
    2018:	0e 94 b3 0c 	call	0x1966	; 0x1966 <Compare0_Match_Out_Mode>
	Clk0_Select();
    201c:	0e 94 c8 0c 	call	0x1990	; 0x1990 <Clk0_Select>

}
    2020:	cf 91       	pop	r28
    2022:	df 91       	pop	r29
    2024:	08 95       	ret

00002026 <Door_Open>:
#include "../MCAL/Timer_Servo_Int.h"
#include "../MCAL/AVR_REG.h"


void Door_Open()
{
    2026:	df 93       	push	r29
    2028:	cf 93       	push	r28
    202a:	cd b7       	in	r28, 0x3d	; 61
    202c:	de b7       	in	r29, 0x3e	; 62
	Motor_180_DEG();
    202e:	0e 94 d0 0d 	call	0x1ba0	; 0x1ba0 <Motor_180_DEG>
}
    2032:	cf 91       	pop	r28
    2034:	df 91       	pop	r29
    2036:	08 95       	ret

00002038 <Door_Close>:
void Door_Close()
{
    2038:	df 93       	push	r29
    203a:	cf 93       	push	r28
    203c:	cd b7       	in	r28, 0x3d	; 61
    203e:	de b7       	in	r29, 0x3e	; 62
	Motor_90_DEG();
    2040:	0e 94 de 0d 	call	0x1bbc	; 0x1bbc <Motor_90_DEG>

}
    2044:	cf 91       	pop	r28
    2046:	df 91       	pop	r29
    2048:	08 95       	ret

0000204a <Door_Ini>:
void Door_Ini()
{
    204a:	df 93       	push	r29
    204c:	cf 93       	push	r28
    204e:	cd b7       	in	r28, 0x3d	; 61
    2050:	de b7       	in	r29, 0x3e	; 62
	DDRD|=(1<<4);
    2052:	a1 e3       	ldi	r26, 0x31	; 49
    2054:	b0 e0       	ldi	r27, 0x00	; 0
    2056:	e1 e3       	ldi	r30, 0x31	; 49
    2058:	f0 e0       	ldi	r31, 0x00	; 0
    205a:	80 81       	ld	r24, Z
    205c:	80 61       	ori	r24, 0x10	; 16
    205e:	8c 93       	st	X, r24
	 Waveform_Gen_Mode();
    2060:	0e 94 3b 0d 	call	0x1a76	; 0x1a76 <Waveform_Gen_Mode>
		 CompareMode_Phase_correct();
    2064:	0e 94 5e 0d 	call	0x1abc	; 0x1abc <CompareMode_Phase_correct>
		 Clk_Select();
    2068:	0e 94 81 0d 	call	0x1b02	; 0x1b02 <Clk_Select>
			OCR1AH=(u8)((2500)>>8);
    206c:	eb e4       	ldi	r30, 0x4B	; 75
    206e:	f0 e0       	ldi	r31, 0x00	; 0
    2070:	89 e0       	ldi	r24, 0x09	; 9
    2072:	80 83       	st	Z, r24
			OCR1AL=(u8)2500;
    2074:	ea e4       	ldi	r30, 0x4A	; 74
    2076:	f0 e0       	ldi	r31, 0x00	; 0
    2078:	84 ec       	ldi	r24, 0xC4	; 196
    207a:	80 83       	st	Z, r24
}
    207c:	cf 91       	pop	r28
    207e:	df 91       	pop	r29
    2080:	08 95       	ret

00002082 <EEPROM_enuInit>:
#include "util/delay.h"
#include "EEPROM_config.h"
#include "EEPROM_priv.h"
#include <string.h>
ES_t EEPROM_enuInit(void)
{
    2082:	df 93       	push	r29
    2084:	cf 93       	push	r28
    2086:	0f 92       	push	r0
    2088:	cd b7       	in	r28, 0x3d	; 61
    208a:	de b7       	in	r29, 0x3e	; 62
	ES_t Local_enuErrorState = ES_NOK;
    208c:	19 82       	std	Y+1, r1	; 0x01

	Local_enuErrorState = IIC_enuInit();
    208e:	0e 94 c1 0a 	call	0x1582	; 0x1582 <IIC_enuInit>
    2092:	89 83       	std	Y+1, r24	; 0x01

	return Local_enuErrorState;
    2094:	89 81       	ldd	r24, Y+1	; 0x01
}
    2096:	0f 90       	pop	r0
    2098:	cf 91       	pop	r28
    209a:	df 91       	pop	r29
    209c:	08 95       	ret

0000209e <EEPROM_enuWriteData>:

ES_t EEPROM_enuWriteData(u16 Copy_u16Address, u8 Copy_u8Data)
{
    209e:	df 93       	push	r29
    20a0:	cf 93       	push	r28
    20a2:	00 d0       	rcall	.+0      	; 0x20a4 <EEPROM_enuWriteData+0x6>
    20a4:	00 d0       	rcall	.+0      	; 0x20a6 <EEPROM_enuWriteData+0x8>
    20a6:	00 d0       	rcall	.+0      	; 0x20a8 <EEPROM_enuWriteData+0xa>
    20a8:	cd b7       	in	r28, 0x3d	; 61
    20aa:	de b7       	in	r29, 0x3e	; 62
    20ac:	9d 83       	std	Y+5, r25	; 0x05
    20ae:	8c 83       	std	Y+4, r24	; 0x04
    20b0:	6e 83       	std	Y+6, r22	; 0x06
	ES_t Local_enuErrorState = ES_NOK;
    20b2:	1b 82       	std	Y+3, r1	; 0x03

#if EEPROM_TYPE == EIGHT_KBIT
	u8 Local_u8Address =( ( 0xA0 | (EEPROM_A2_STATE<<3) | ( ((Copy_u16Address>>8) &3) << 1) ) >>1 );
    20b4:	8c 81       	ldd	r24, Y+4	; 0x04
    20b6:	9d 81       	ldd	r25, Y+5	; 0x05
    20b8:	89 2f       	mov	r24, r25
    20ba:	99 27       	eor	r25, r25
    20bc:	83 70       	andi	r24, 0x03	; 3
    20be:	90 70       	andi	r25, 0x00	; 0
    20c0:	88 0f       	add	r24, r24
    20c2:	99 1f       	adc	r25, r25
    20c4:	80 6a       	ori	r24, 0xA0	; 160
    20c6:	96 95       	lsr	r25
    20c8:	87 95       	ror	r24
    20ca:	8a 83       	std	Y+2, r24	; 0x02
	u8 Local_ByteAddress = (u8)Copy_u16Address;
    20cc:	8c 81       	ldd	r24, Y+4	; 0x04
    20ce:	89 83       	std	Y+1, r24	; 0x01
#endif

	if (ES_OK == IIC_enuStartCondition())
    20d0:	0e 94 f0 0a 	call	0x15e0	; 0x15e0 <IIC_enuStartCondition>
    20d4:	81 30       	cpi	r24, 0x01	; 1
    20d6:	a1 f4       	brne	.+40     	; 0x2100 <EEPROM_enuWriteData+0x62>
	{


		if (ES_OK == IIC_enuWriteSlaveAddress(Local_u8Address , 0))
    20d8:	8a 81       	ldd	r24, Y+2	; 0x02
    20da:	60 e0       	ldi	r22, 0x00	; 0
    20dc:	0e 94 5d 0b 	call	0x16ba	; 0x16ba <IIC_enuWriteSlaveAddress>
    20e0:	81 30       	cpi	r24, 0x01	; 1
    20e2:	71 f4       	brne	.+28     	; 0x2100 <EEPROM_enuWriteData+0x62>
		{
			if (ES_OK==IIC_enuWriteData(Local_ByteAddress))
    20e4:	89 81       	ldd	r24, Y+1	; 0x01
    20e6:	0e 94 aa 0b 	call	0x1754	; 0x1754 <IIC_enuWriteData>
    20ea:	81 30       	cpi	r24, 0x01	; 1
    20ec:	49 f4       	brne	.+18     	; 0x2100 <EEPROM_enuWriteData+0x62>
			{
				if(ES_OK == IIC_enuWriteData(Copy_u8Data))
    20ee:	8e 81       	ldd	r24, Y+6	; 0x06
    20f0:	0e 94 aa 0b 	call	0x1754	; 0x1754 <IIC_enuWriteData>
    20f4:	81 30       	cpi	r24, 0x01	; 1
    20f6:	21 f4       	brne	.+8      	; 0x2100 <EEPROM_enuWriteData+0x62>
				{
					IIC_enuStopCondition();
    20f8:	0e 94 44 0b 	call	0x1688	; 0x1688 <IIC_enuStopCondition>
					Local_enuErrorState = ES_OK;
    20fc:	81 e0       	ldi	r24, 0x01	; 1
    20fe:	8b 83       	std	Y+3, r24	; 0x03
				}
			}
		}
	}
	return Local_enuErrorState;
    2100:	8b 81       	ldd	r24, Y+3	; 0x03
}
    2102:	26 96       	adiw	r28, 0x06	; 6
    2104:	0f b6       	in	r0, 0x3f	; 63
    2106:	f8 94       	cli
    2108:	de bf       	out	0x3e, r29	; 62
    210a:	0f be       	out	0x3f, r0	; 63
    210c:	cd bf       	out	0x3d, r28	; 61
    210e:	cf 91       	pop	r28
    2110:	df 91       	pop	r29
    2112:	08 95       	ret

00002114 <EEPROM_enuReadData>:

ES_t EEPROM_enuReadData(u16 Copy_u16Address, u8 * Copy_pu8Data)
{
    2114:	df 93       	push	r29
    2116:	cf 93       	push	r28
    2118:	cd b7       	in	r28, 0x3d	; 61
    211a:	de b7       	in	r29, 0x3e	; 62
    211c:	27 97       	sbiw	r28, 0x07	; 7
    211e:	0f b6       	in	r0, 0x3f	; 63
    2120:	f8 94       	cli
    2122:	de bf       	out	0x3e, r29	; 62
    2124:	0f be       	out	0x3f, r0	; 63
    2126:	cd bf       	out	0x3d, r28	; 61
    2128:	9d 83       	std	Y+5, r25	; 0x05
    212a:	8c 83       	std	Y+4, r24	; 0x04
    212c:	7f 83       	std	Y+7, r23	; 0x07
    212e:	6e 83       	std	Y+6, r22	; 0x06
	ES_t Local_enuErrorState = ES_NOK;
    2130:	1b 82       	std	Y+3, r1	; 0x03

#if EEPROM_TYPE == EIGHT_KBIT
	u8 Local_u8Address =( ( 0xA0 | (EEPROM_A2_STATE<<3) | ( ((Copy_u16Address>>8) &3) << 1) ) >>1 );
    2132:	8c 81       	ldd	r24, Y+4	; 0x04
    2134:	9d 81       	ldd	r25, Y+5	; 0x05
    2136:	89 2f       	mov	r24, r25
    2138:	99 27       	eor	r25, r25
    213a:	83 70       	andi	r24, 0x03	; 3
    213c:	90 70       	andi	r25, 0x00	; 0
    213e:	88 0f       	add	r24, r24
    2140:	99 1f       	adc	r25, r25
    2142:	80 6a       	ori	r24, 0xA0	; 160
    2144:	96 95       	lsr	r25
    2146:	87 95       	ror	r24
    2148:	8a 83       	std	Y+2, r24	; 0x02
	u8 Local_ByteAddress = (u8)Copy_u16Address;
    214a:	8c 81       	ldd	r24, Y+4	; 0x04
    214c:	89 83       	std	Y+1, r24	; 0x01
#endif

	if (ES_OK == IIC_enuStartCondition())
    214e:	0e 94 f0 0a 	call	0x15e0	; 0x15e0 <IIC_enuStartCondition>
    2152:	81 30       	cpi	r24, 0x01	; 1
    2154:	f9 f4       	brne	.+62     	; 0x2194 <EEPROM_enuReadData+0x80>
	{
		if (ES_OK == IIC_enuWriteSlaveAddress(Local_u8Address , 0))
    2156:	8a 81       	ldd	r24, Y+2	; 0x02
    2158:	60 e0       	ldi	r22, 0x00	; 0
    215a:	0e 94 5d 0b 	call	0x16ba	; 0x16ba <IIC_enuWriteSlaveAddress>
    215e:	81 30       	cpi	r24, 0x01	; 1
    2160:	c9 f4       	brne	.+50     	; 0x2194 <EEPROM_enuReadData+0x80>
		{
			if (ES_OK==IIC_enuWriteData(Local_ByteAddress))
    2162:	89 81       	ldd	r24, Y+1	; 0x01
    2164:	0e 94 aa 0b 	call	0x1754	; 0x1754 <IIC_enuWriteData>
    2168:	81 30       	cpi	r24, 0x01	; 1
    216a:	a1 f4       	brne	.+40     	; 0x2194 <EEPROM_enuReadData+0x80>
			{
				if(ES_OK == IIC_enuRepeatedStartCondition())
    216c:	0e 94 1a 0b 	call	0x1634	; 0x1634 <IIC_enuRepeatedStartCondition>
    2170:	81 30       	cpi	r24, 0x01	; 1
    2172:	81 f4       	brne	.+32     	; 0x2194 <EEPROM_enuReadData+0x80>
				{
					if (ES_OK == IIC_enuWriteSlaveAddress(Local_u8Address , 1) )
    2174:	8a 81       	ldd	r24, Y+2	; 0x02
    2176:	61 e0       	ldi	r22, 0x01	; 1
    2178:	0e 94 5d 0b 	call	0x16ba	; 0x16ba <IIC_enuWriteSlaveAddress>
    217c:	81 30       	cpi	r24, 0x01	; 1
    217e:	51 f4       	brne	.+20     	; 0x2194 <EEPROM_enuReadData+0x80>
					{
						if (ES_OK == IIC_enuReadData( Copy_pu8Data ))
    2180:	8e 81       	ldd	r24, Y+6	; 0x06
    2182:	9f 81       	ldd	r25, Y+7	; 0x07
    2184:	0e 94 0a 0c 	call	0x1814	; 0x1814 <IIC_enuReadData>
    2188:	81 30       	cpi	r24, 0x01	; 1
    218a:	21 f4       	brne	.+8      	; 0x2194 <EEPROM_enuReadData+0x80>
						{
							IIC_enuStopCondition();
    218c:	0e 94 44 0b 	call	0x1688	; 0x1688 <IIC_enuStopCondition>
							Local_enuErrorState = ES_OK;
    2190:	81 e0       	ldi	r24, 0x01	; 1
    2192:	8b 83       	std	Y+3, r24	; 0x03
				}
			}
		}
	}

	return Local_enuErrorState;
    2194:	8b 81       	ldd	r24, Y+3	; 0x03
}
    2196:	27 96       	adiw	r28, 0x07	; 7
    2198:	0f b6       	in	r0, 0x3f	; 63
    219a:	f8 94       	cli
    219c:	de bf       	out	0x3e, r29	; 62
    219e:	0f be       	out	0x3f, r0	; 63
    21a0:	cd bf       	out	0x3d, r28	; 61
    21a2:	cf 91       	pop	r28
    21a4:	df 91       	pop	r29
    21a6:	08 95       	ret

000021a8 <Save_Info>:
void Save_Info(u16 adress,u8* data,u8 len)
{
    21a8:	df 93       	push	r29
    21aa:	cf 93       	push	r28
    21ac:	cd b7       	in	r28, 0x3d	; 61
    21ae:	de b7       	in	r29, 0x3e	; 62
    21b0:	64 97       	sbiw	r28, 0x14	; 20
    21b2:	0f b6       	in	r0, 0x3f	; 63
    21b4:	f8 94       	cli
    21b6:	de bf       	out	0x3e, r29	; 62
    21b8:	0f be       	out	0x3f, r0	; 63
    21ba:	cd bf       	out	0x3d, r28	; 61
    21bc:	99 8b       	std	Y+17, r25	; 0x11
    21be:	88 8b       	std	Y+16, r24	; 0x10
    21c0:	7b 8b       	std	Y+19, r23	; 0x13
    21c2:	6a 8b       	std	Y+18, r22	; 0x12
    21c4:	4c 8b       	std	Y+20, r20	; 0x14
//u8 *data_cast=(u8 *)data;
	 for( u8 i=0;i<len;i++)
    21c6:	1f 86       	std	Y+15, r1	; 0x0f
    21c8:	8a c0       	rjmp	.+276    	; 0x22de <Save_Info+0x136>
		  {
		 EEPROM_enuWriteData(adress+i ,data[i]);
    21ca:	8f 85       	ldd	r24, Y+15	; 0x0f
    21cc:	28 2f       	mov	r18, r24
    21ce:	30 e0       	ldi	r19, 0x00	; 0
    21d0:	88 89       	ldd	r24, Y+16	; 0x10
    21d2:	99 89       	ldd	r25, Y+17	; 0x11
    21d4:	a9 01       	movw	r20, r18
    21d6:	48 0f       	add	r20, r24
    21d8:	59 1f       	adc	r21, r25
    21da:	8f 85       	ldd	r24, Y+15	; 0x0f
    21dc:	28 2f       	mov	r18, r24
    21de:	30 e0       	ldi	r19, 0x00	; 0
    21e0:	8a 89       	ldd	r24, Y+18	; 0x12
    21e2:	9b 89       	ldd	r25, Y+19	; 0x13
    21e4:	fc 01       	movw	r30, r24
    21e6:	e2 0f       	add	r30, r18
    21e8:	f3 1f       	adc	r31, r19
    21ea:	20 81       	ld	r18, Z
    21ec:	ca 01       	movw	r24, r20
    21ee:	62 2f       	mov	r22, r18
    21f0:	0e 94 4f 10 	call	0x209e	; 0x209e <EEPROM_enuWriteData>
    21f4:	80 e0       	ldi	r24, 0x00	; 0
    21f6:	90 e0       	ldi	r25, 0x00	; 0
    21f8:	a6 e1       	ldi	r26, 0x16	; 22
    21fa:	b3 e4       	ldi	r27, 0x43	; 67
    21fc:	8b 87       	std	Y+11, r24	; 0x0b
    21fe:	9c 87       	std	Y+12, r25	; 0x0c
    2200:	ad 87       	std	Y+13, r26	; 0x0d
    2202:	be 87       	std	Y+14, r27	; 0x0e
 */
void
_delay_ms(double __ms)
{
	uint16_t __ticks;
	double __tmp = ((F_CPU) / 4e3) * __ms;
    2204:	6b 85       	ldd	r22, Y+11	; 0x0b
    2206:	7c 85       	ldd	r23, Y+12	; 0x0c
    2208:	8d 85       	ldd	r24, Y+13	; 0x0d
    220a:	9e 85       	ldd	r25, Y+14	; 0x0e
    220c:	20 e0       	ldi	r18, 0x00	; 0
    220e:	30 e0       	ldi	r19, 0x00	; 0
    2210:	4a e7       	ldi	r20, 0x7A	; 122
    2212:	55 e4       	ldi	r21, 0x45	; 69
    2214:	0e 94 1f 02 	call	0x43e	; 0x43e <__mulsf3>
    2218:	dc 01       	movw	r26, r24
    221a:	cb 01       	movw	r24, r22
    221c:	8f 83       	std	Y+7, r24	; 0x07
    221e:	98 87       	std	Y+8, r25	; 0x08
    2220:	a9 87       	std	Y+9, r26	; 0x09
    2222:	ba 87       	std	Y+10, r27	; 0x0a
	if (__tmp < 1.0)
    2224:	6f 81       	ldd	r22, Y+7	; 0x07
    2226:	78 85       	ldd	r23, Y+8	; 0x08
    2228:	89 85       	ldd	r24, Y+9	; 0x09
    222a:	9a 85       	ldd	r25, Y+10	; 0x0a
    222c:	20 e0       	ldi	r18, 0x00	; 0
    222e:	30 e0       	ldi	r19, 0x00	; 0
    2230:	40 e8       	ldi	r20, 0x80	; 128
    2232:	5f e3       	ldi	r21, 0x3F	; 63
    2234:	0e 94 79 03 	call	0x6f2	; 0x6f2 <__ltsf2>
    2238:	88 23       	and	r24, r24
    223a:	2c f4       	brge	.+10     	; 0x2246 <Save_Info+0x9e>
		__ticks = 1;
    223c:	81 e0       	ldi	r24, 0x01	; 1
    223e:	90 e0       	ldi	r25, 0x00	; 0
    2240:	9e 83       	std	Y+6, r25	; 0x06
    2242:	8d 83       	std	Y+5, r24	; 0x05
    2244:	3f c0       	rjmp	.+126    	; 0x22c4 <Save_Info+0x11c>
	else if (__tmp > 65535)
    2246:	6f 81       	ldd	r22, Y+7	; 0x07
    2248:	78 85       	ldd	r23, Y+8	; 0x08
    224a:	89 85       	ldd	r24, Y+9	; 0x09
    224c:	9a 85       	ldd	r25, Y+10	; 0x0a
    224e:	20 e0       	ldi	r18, 0x00	; 0
    2250:	3f ef       	ldi	r19, 0xFF	; 255
    2252:	4f e7       	ldi	r20, 0x7F	; 127
    2254:	57 e4       	ldi	r21, 0x47	; 71
    2256:	0e 94 19 03 	call	0x632	; 0x632 <__gtsf2>
    225a:	18 16       	cp	r1, r24
    225c:	4c f5       	brge	.+82     	; 0x22b0 <Save_Info+0x108>
	{
		//	__ticks = requested delay in 1/10 ms
		__ticks = (uint16_t) (__ms * 10.0);
    225e:	6b 85       	ldd	r22, Y+11	; 0x0b
    2260:	7c 85       	ldd	r23, Y+12	; 0x0c
    2262:	8d 85       	ldd	r24, Y+13	; 0x0d
    2264:	9e 85       	ldd	r25, Y+14	; 0x0e
    2266:	20 e0       	ldi	r18, 0x00	; 0
    2268:	30 e0       	ldi	r19, 0x00	; 0
    226a:	40 e2       	ldi	r20, 0x20	; 32
    226c:	51 e4       	ldi	r21, 0x41	; 65
    226e:	0e 94 1f 02 	call	0x43e	; 0x43e <__mulsf3>
    2272:	dc 01       	movw	r26, r24
    2274:	cb 01       	movw	r24, r22
    2276:	bc 01       	movw	r22, r24
    2278:	cd 01       	movw	r24, r26
    227a:	0e 94 49 00 	call	0x92	; 0x92 <__fixunssfsi>
    227e:	dc 01       	movw	r26, r24
    2280:	cb 01       	movw	r24, r22
    2282:	9e 83       	std	Y+6, r25	; 0x06
    2284:	8d 83       	std	Y+5, r24	; 0x05
    2286:	0f c0       	rjmp	.+30     	; 0x22a6 <Save_Info+0xfe>
    2288:	80 e9       	ldi	r24, 0x90	; 144
    228a:	91 e0       	ldi	r25, 0x01	; 1
    228c:	9c 83       	std	Y+4, r25	; 0x04
    228e:	8b 83       	std	Y+3, r24	; 0x03
    milliseconds can be achieved.
 */
void
_delay_loop_2(uint16_t __count)
{
	__asm__ volatile (
    2290:	8b 81       	ldd	r24, Y+3	; 0x03
    2292:	9c 81       	ldd	r25, Y+4	; 0x04
    2294:	01 97       	sbiw	r24, 0x01	; 1
    2296:	f1 f7       	brne	.-4      	; 0x2294 <Save_Info+0xec>
    2298:	9c 83       	std	Y+4, r25	; 0x04
    229a:	8b 83       	std	Y+3, r24	; 0x03
		while(__ticks)
		{
			// wait 1/10 ms
			_delay_loop_2(((F_CPU) / 4e3) / 10);
			__ticks --;
    229c:	8d 81       	ldd	r24, Y+5	; 0x05
    229e:	9e 81       	ldd	r25, Y+6	; 0x06
    22a0:	01 97       	sbiw	r24, 0x01	; 1
    22a2:	9e 83       	std	Y+6, r25	; 0x06
    22a4:	8d 83       	std	Y+5, r24	; 0x05
		__ticks = 1;
	else if (__tmp > 65535)
	{
		//	__ticks = requested delay in 1/10 ms
		__ticks = (uint16_t) (__ms * 10.0);
		while(__ticks)
    22a6:	8d 81       	ldd	r24, Y+5	; 0x05
    22a8:	9e 81       	ldd	r25, Y+6	; 0x06
    22aa:	00 97       	sbiw	r24, 0x00	; 0
    22ac:	69 f7       	brne	.-38     	; 0x2288 <Save_Info+0xe0>
    22ae:	14 c0       	rjmp	.+40     	; 0x22d8 <Save_Info+0x130>
			__ticks --;
		}
		return;
	}
	else
		__ticks = (uint16_t)__tmp;
    22b0:	6f 81       	ldd	r22, Y+7	; 0x07
    22b2:	78 85       	ldd	r23, Y+8	; 0x08
    22b4:	89 85       	ldd	r24, Y+9	; 0x09
    22b6:	9a 85       	ldd	r25, Y+10	; 0x0a
    22b8:	0e 94 49 00 	call	0x92	; 0x92 <__fixunssfsi>
    22bc:	dc 01       	movw	r26, r24
    22be:	cb 01       	movw	r24, r22
    22c0:	9e 83       	std	Y+6, r25	; 0x06
    22c2:	8d 83       	std	Y+5, r24	; 0x05
    22c4:	8d 81       	ldd	r24, Y+5	; 0x05
    22c6:	9e 81       	ldd	r25, Y+6	; 0x06
    22c8:	9a 83       	std	Y+2, r25	; 0x02
    22ca:	89 83       	std	Y+1, r24	; 0x01
    22cc:	89 81       	ldd	r24, Y+1	; 0x01
    22ce:	9a 81       	ldd	r25, Y+2	; 0x02
    22d0:	01 97       	sbiw	r24, 0x01	; 1
    22d2:	f1 f7       	brne	.-4      	; 0x22d0 <Save_Info+0x128>
    22d4:	9a 83       	std	Y+2, r25	; 0x02
    22d6:	89 83       	std	Y+1, r24	; 0x01
	return Local_enuErrorState;
}
void Save_Info(u16 adress,u8* data,u8 len)
{
//u8 *data_cast=(u8 *)data;
	 for( u8 i=0;i<len;i++)
    22d8:	8f 85       	ldd	r24, Y+15	; 0x0f
    22da:	8f 5f       	subi	r24, 0xFF	; 255
    22dc:	8f 87       	std	Y+15, r24	; 0x0f
    22de:	9f 85       	ldd	r25, Y+15	; 0x0f
    22e0:	8c 89       	ldd	r24, Y+20	; 0x14
    22e2:	98 17       	cp	r25, r24
    22e4:	08 f4       	brcc	.+2      	; 0x22e8 <Save_Info+0x140>
    22e6:	71 cf       	rjmp	.-286    	; 0x21ca <Save_Info+0x22>
		  {
		 EEPROM_enuWriteData(adress+i ,data[i]);
			  _delay_ms(150);
		  }
}
    22e8:	64 96       	adiw	r28, 0x14	; 20
    22ea:	0f b6       	in	r0, 0x3f	; 63
    22ec:	f8 94       	cli
    22ee:	de bf       	out	0x3e, r29	; 62
    22f0:	0f be       	out	0x3f, r0	; 63
    22f2:	cd bf       	out	0x3d, r28	; 61
    22f4:	cf 91       	pop	r28
    22f6:	df 91       	pop	r29
    22f8:	08 95       	ret

000022fa <Read_Info>:
void Read_Info(u16 adress,u8* data,u8 len)
{
    22fa:	df 93       	push	r29
    22fc:	cf 93       	push	r28
    22fe:	cd b7       	in	r28, 0x3d	; 61
    2300:	de b7       	in	r29, 0x3e	; 62
    2302:	64 97       	sbiw	r28, 0x14	; 20
    2304:	0f b6       	in	r0, 0x3f	; 63
    2306:	f8 94       	cli
    2308:	de bf       	out	0x3e, r29	; 62
    230a:	0f be       	out	0x3f, r0	; 63
    230c:	cd bf       	out	0x3d, r28	; 61
    230e:	99 8b       	std	Y+17, r25	; 0x11
    2310:	88 8b       	std	Y+16, r24	; 0x10
    2312:	7b 8b       	std	Y+19, r23	; 0x13
    2314:	6a 8b       	std	Y+18, r22	; 0x12
    2316:	4c 8b       	std	Y+20, r20	; 0x14

	// u8 *data_cast=(u8 *)data;
	  for(u8 i=0;i<len;i++)
    2318:	1f 86       	std	Y+15, r1	; 0x0f
    231a:	88 c0       	rjmp	.+272    	; 0x242c <Read_Info+0x132>
	 	  {
		  EEPROM_enuReadData(adress+i,&data[i]);
    231c:	8f 85       	ldd	r24, Y+15	; 0x0f
    231e:	28 2f       	mov	r18, r24
    2320:	30 e0       	ldi	r19, 0x00	; 0
    2322:	88 89       	ldd	r24, Y+16	; 0x10
    2324:	99 89       	ldd	r25, Y+17	; 0x11
    2326:	a9 01       	movw	r20, r18
    2328:	48 0f       	add	r20, r24
    232a:	59 1f       	adc	r21, r25
    232c:	8f 85       	ldd	r24, Y+15	; 0x0f
    232e:	28 2f       	mov	r18, r24
    2330:	30 e0       	ldi	r19, 0x00	; 0
    2332:	8a 89       	ldd	r24, Y+18	; 0x12
    2334:	9b 89       	ldd	r25, Y+19	; 0x13
    2336:	28 0f       	add	r18, r24
    2338:	39 1f       	adc	r19, r25
    233a:	ca 01       	movw	r24, r20
    233c:	b9 01       	movw	r22, r18
    233e:	0e 94 8a 10 	call	0x2114	; 0x2114 <EEPROM_enuReadData>
    2342:	80 e0       	ldi	r24, 0x00	; 0
    2344:	90 e0       	ldi	r25, 0x00	; 0
    2346:	a6 e1       	ldi	r26, 0x16	; 22
    2348:	b3 e4       	ldi	r27, 0x43	; 67
    234a:	8b 87       	std	Y+11, r24	; 0x0b
    234c:	9c 87       	std	Y+12, r25	; 0x0c
    234e:	ad 87       	std	Y+13, r26	; 0x0d
    2350:	be 87       	std	Y+14, r27	; 0x0e
 */
void
_delay_ms(double __ms)
{
	uint16_t __ticks;
	double __tmp = ((F_CPU) / 4e3) * __ms;
    2352:	6b 85       	ldd	r22, Y+11	; 0x0b
    2354:	7c 85       	ldd	r23, Y+12	; 0x0c
    2356:	8d 85       	ldd	r24, Y+13	; 0x0d
    2358:	9e 85       	ldd	r25, Y+14	; 0x0e
    235a:	20 e0       	ldi	r18, 0x00	; 0
    235c:	30 e0       	ldi	r19, 0x00	; 0
    235e:	4a e7       	ldi	r20, 0x7A	; 122
    2360:	55 e4       	ldi	r21, 0x45	; 69
    2362:	0e 94 1f 02 	call	0x43e	; 0x43e <__mulsf3>
    2366:	dc 01       	movw	r26, r24
    2368:	cb 01       	movw	r24, r22
    236a:	8f 83       	std	Y+7, r24	; 0x07
    236c:	98 87       	std	Y+8, r25	; 0x08
    236e:	a9 87       	std	Y+9, r26	; 0x09
    2370:	ba 87       	std	Y+10, r27	; 0x0a
	if (__tmp < 1.0)
    2372:	6f 81       	ldd	r22, Y+7	; 0x07
    2374:	78 85       	ldd	r23, Y+8	; 0x08
    2376:	89 85       	ldd	r24, Y+9	; 0x09
    2378:	9a 85       	ldd	r25, Y+10	; 0x0a
    237a:	20 e0       	ldi	r18, 0x00	; 0
    237c:	30 e0       	ldi	r19, 0x00	; 0
    237e:	40 e8       	ldi	r20, 0x80	; 128
    2380:	5f e3       	ldi	r21, 0x3F	; 63
    2382:	0e 94 79 03 	call	0x6f2	; 0x6f2 <__ltsf2>
    2386:	88 23       	and	r24, r24
    2388:	2c f4       	brge	.+10     	; 0x2394 <Read_Info+0x9a>
		__ticks = 1;
    238a:	81 e0       	ldi	r24, 0x01	; 1
    238c:	90 e0       	ldi	r25, 0x00	; 0
    238e:	9e 83       	std	Y+6, r25	; 0x06
    2390:	8d 83       	std	Y+5, r24	; 0x05
    2392:	3f c0       	rjmp	.+126    	; 0x2412 <Read_Info+0x118>
	else if (__tmp > 65535)
    2394:	6f 81       	ldd	r22, Y+7	; 0x07
    2396:	78 85       	ldd	r23, Y+8	; 0x08
    2398:	89 85       	ldd	r24, Y+9	; 0x09
    239a:	9a 85       	ldd	r25, Y+10	; 0x0a
    239c:	20 e0       	ldi	r18, 0x00	; 0
    239e:	3f ef       	ldi	r19, 0xFF	; 255
    23a0:	4f e7       	ldi	r20, 0x7F	; 127
    23a2:	57 e4       	ldi	r21, 0x47	; 71
    23a4:	0e 94 19 03 	call	0x632	; 0x632 <__gtsf2>
    23a8:	18 16       	cp	r1, r24
    23aa:	4c f5       	brge	.+82     	; 0x23fe <Read_Info+0x104>
	{
		//	__ticks = requested delay in 1/10 ms
		__ticks = (uint16_t) (__ms * 10.0);
    23ac:	6b 85       	ldd	r22, Y+11	; 0x0b
    23ae:	7c 85       	ldd	r23, Y+12	; 0x0c
    23b0:	8d 85       	ldd	r24, Y+13	; 0x0d
    23b2:	9e 85       	ldd	r25, Y+14	; 0x0e
    23b4:	20 e0       	ldi	r18, 0x00	; 0
    23b6:	30 e0       	ldi	r19, 0x00	; 0
    23b8:	40 e2       	ldi	r20, 0x20	; 32
    23ba:	51 e4       	ldi	r21, 0x41	; 65
    23bc:	0e 94 1f 02 	call	0x43e	; 0x43e <__mulsf3>
    23c0:	dc 01       	movw	r26, r24
    23c2:	cb 01       	movw	r24, r22
    23c4:	bc 01       	movw	r22, r24
    23c6:	cd 01       	movw	r24, r26
    23c8:	0e 94 49 00 	call	0x92	; 0x92 <__fixunssfsi>
    23cc:	dc 01       	movw	r26, r24
    23ce:	cb 01       	movw	r24, r22
    23d0:	9e 83       	std	Y+6, r25	; 0x06
    23d2:	8d 83       	std	Y+5, r24	; 0x05
    23d4:	0f c0       	rjmp	.+30     	; 0x23f4 <Read_Info+0xfa>
    23d6:	80 e9       	ldi	r24, 0x90	; 144
    23d8:	91 e0       	ldi	r25, 0x01	; 1
    23da:	9c 83       	std	Y+4, r25	; 0x04
    23dc:	8b 83       	std	Y+3, r24	; 0x03
    23de:	8b 81       	ldd	r24, Y+3	; 0x03
    23e0:	9c 81       	ldd	r25, Y+4	; 0x04
    23e2:	01 97       	sbiw	r24, 0x01	; 1
    23e4:	f1 f7       	brne	.-4      	; 0x23e2 <Read_Info+0xe8>
    23e6:	9c 83       	std	Y+4, r25	; 0x04
    23e8:	8b 83       	std	Y+3, r24	; 0x03
		while(__ticks)
		{
			// wait 1/10 ms
			_delay_loop_2(((F_CPU) / 4e3) / 10);
			__ticks --;
    23ea:	8d 81       	ldd	r24, Y+5	; 0x05
    23ec:	9e 81       	ldd	r25, Y+6	; 0x06
    23ee:	01 97       	sbiw	r24, 0x01	; 1
    23f0:	9e 83       	std	Y+6, r25	; 0x06
    23f2:	8d 83       	std	Y+5, r24	; 0x05
		__ticks = 1;
	else if (__tmp > 65535)
	{
		//	__ticks = requested delay in 1/10 ms
		__ticks = (uint16_t) (__ms * 10.0);
		while(__ticks)
    23f4:	8d 81       	ldd	r24, Y+5	; 0x05
    23f6:	9e 81       	ldd	r25, Y+6	; 0x06
    23f8:	00 97       	sbiw	r24, 0x00	; 0
    23fa:	69 f7       	brne	.-38     	; 0x23d6 <Read_Info+0xdc>
    23fc:	14 c0       	rjmp	.+40     	; 0x2426 <Read_Info+0x12c>
			__ticks --;
		}
		return;
	}
	else
		__ticks = (uint16_t)__tmp;
    23fe:	6f 81       	ldd	r22, Y+7	; 0x07
    2400:	78 85       	ldd	r23, Y+8	; 0x08
    2402:	89 85       	ldd	r24, Y+9	; 0x09
    2404:	9a 85       	ldd	r25, Y+10	; 0x0a
    2406:	0e 94 49 00 	call	0x92	; 0x92 <__fixunssfsi>
    240a:	dc 01       	movw	r26, r24
    240c:	cb 01       	movw	r24, r22
    240e:	9e 83       	std	Y+6, r25	; 0x06
    2410:	8d 83       	std	Y+5, r24	; 0x05
    2412:	8d 81       	ldd	r24, Y+5	; 0x05
    2414:	9e 81       	ldd	r25, Y+6	; 0x06
    2416:	9a 83       	std	Y+2, r25	; 0x02
    2418:	89 83       	std	Y+1, r24	; 0x01
    241a:	89 81       	ldd	r24, Y+1	; 0x01
    241c:	9a 81       	ldd	r25, Y+2	; 0x02
    241e:	01 97       	sbiw	r24, 0x01	; 1
    2420:	f1 f7       	brne	.-4      	; 0x241e <Read_Info+0x124>
    2422:	9a 83       	std	Y+2, r25	; 0x02
    2424:	89 83       	std	Y+1, r24	; 0x01
}
void Read_Info(u16 adress,u8* data,u8 len)
{

	// u8 *data_cast=(u8 *)data;
	  for(u8 i=0;i<len;i++)
    2426:	8f 85       	ldd	r24, Y+15	; 0x0f
    2428:	8f 5f       	subi	r24, 0xFF	; 255
    242a:	8f 87       	std	Y+15, r24	; 0x0f
    242c:	9f 85       	ldd	r25, Y+15	; 0x0f
    242e:	8c 89       	ldd	r24, Y+20	; 0x14
    2430:	98 17       	cp	r25, r24
    2432:	08 f4       	brcc	.+2      	; 0x2436 <Read_Info+0x13c>
    2434:	73 cf       	rjmp	.-282    	; 0x231c <Read_Info+0x22>
	 	  {
		  EEPROM_enuReadData(adress+i,&data[i]);
		  _delay_ms(150);
	 	  }

}
    2436:	64 96       	adiw	r28, 0x14	; 20
    2438:	0f b6       	in	r0, 0x3f	; 63
    243a:	f8 94       	cli
    243c:	de bf       	out	0x3e, r29	; 62
    243e:	0f be       	out	0x3f, r0	; 63
    2440:	cd bf       	out	0x3d, r28	; 61
    2442:	cf 91       	pop	r28
    2444:	df 91       	pop	r29
    2446:	08 95       	ret

00002448 <Info_Check>:

u8 Info_Check(u8 User_Num,u8 Input[])
{
    2448:	df 93       	push	r29
    244a:	cf 93       	push	r28
    244c:	cd b7       	in	r28, 0x3d	; 61
    244e:	de b7       	in	r29, 0x3e	; 62
    2450:	2f 97       	sbiw	r28, 0x0f	; 15
    2452:	0f b6       	in	r0, 0x3f	; 63
    2454:	f8 94       	cli
    2456:	de bf       	out	0x3e, r29	; 62
    2458:	0f be       	out	0x3f, r0	; 63
    245a:	cd bf       	out	0x3d, r28	; 61
    245c:	8a 87       	std	Y+10, r24	; 0x0a
    245e:	7c 87       	std	Y+12, r23	; 0x0c
    2460:	6b 87       	std	Y+11, r22	; 0x0b
	u8 Check;
	u8 Memory_Data[8];
	switch(User_Num)
    2462:	8a 85       	ldd	r24, Y+10	; 0x0a
    2464:	28 2f       	mov	r18, r24
    2466:	30 e0       	ldi	r19, 0x00	; 0
    2468:	3f 87       	std	Y+15, r19	; 0x0f
    246a:	2e 87       	std	Y+14, r18	; 0x0e
    246c:	8e 85       	ldd	r24, Y+14	; 0x0e
    246e:	9f 85       	ldd	r25, Y+15	; 0x0f
    2470:	86 34       	cpi	r24, 0x46	; 70
    2472:	91 05       	cpc	r25, r1
    2474:	09 f4       	brne	.+2      	; 0x2478 <Info_Check+0x30>
    2476:	34 c1       	rjmp	.+616    	; 0x26e0 <Info_Check+0x298>
    2478:	2e 85       	ldd	r18, Y+14	; 0x0e
    247a:	3f 85       	ldd	r19, Y+15	; 0x0f
    247c:	27 34       	cpi	r18, 0x47	; 71
    247e:	31 05       	cpc	r19, r1
    2480:	2c f5       	brge	.+74     	; 0x24cc <Info_Check+0x84>
    2482:	8e 85       	ldd	r24, Y+14	; 0x0e
    2484:	9f 85       	ldd	r25, Y+15	; 0x0f
    2486:	83 34       	cpi	r24, 0x43	; 67
    2488:	91 05       	cpc	r25, r1
    248a:	09 f4       	brne	.+2      	; 0x248e <Info_Check+0x46>
    248c:	a3 c0       	rjmp	.+326    	; 0x25d4 <Info_Check+0x18c>
    248e:	2e 85       	ldd	r18, Y+14	; 0x0e
    2490:	3f 85       	ldd	r19, Y+15	; 0x0f
    2492:	24 34       	cpi	r18, 0x44	; 68
    2494:	31 05       	cpc	r19, r1
    2496:	6c f4       	brge	.+26     	; 0x24b2 <Info_Check+0x6a>
    2498:	8e 85       	ldd	r24, Y+14	; 0x0e
    249a:	9f 85       	ldd	r25, Y+15	; 0x0f
    249c:	81 34       	cpi	r24, 0x41	; 65
    249e:	91 05       	cpc	r25, r1
    24a0:	09 f4       	brne	.+2      	; 0x24a4 <Info_Check+0x5c>
    24a2:	3e c0       	rjmp	.+124    	; 0x2520 <Info_Check+0xd8>
    24a4:	2e 85       	ldd	r18, Y+14	; 0x0e
    24a6:	3f 85       	ldd	r19, Y+15	; 0x0f
    24a8:	22 34       	cpi	r18, 0x42	; 66
    24aa:	31 05       	cpc	r19, r1
    24ac:	09 f4       	brne	.+2      	; 0x24b0 <Info_Check+0x68>
    24ae:	65 c0       	rjmp	.+202    	; 0x257a <Info_Check+0x132>
    24b0:	42 c1       	rjmp	.+644    	; 0x2736 <Info_Check+0x2ee>
    24b2:	8e 85       	ldd	r24, Y+14	; 0x0e
    24b4:	9f 85       	ldd	r25, Y+15	; 0x0f
    24b6:	84 34       	cpi	r24, 0x44	; 68
    24b8:	91 05       	cpc	r25, r1
    24ba:	09 f4       	brne	.+2      	; 0x24be <Info_Check+0x76>
    24bc:	b8 c0       	rjmp	.+368    	; 0x262e <Info_Check+0x1e6>
    24be:	2e 85       	ldd	r18, Y+14	; 0x0e
    24c0:	3f 85       	ldd	r19, Y+15	; 0x0f
    24c2:	25 34       	cpi	r18, 0x45	; 69
    24c4:	31 05       	cpc	r19, r1
    24c6:	09 f4       	brne	.+2      	; 0x24ca <Info_Check+0x82>
    24c8:	df c0       	rjmp	.+446    	; 0x2688 <Info_Check+0x240>
    24ca:	35 c1       	rjmp	.+618    	; 0x2736 <Info_Check+0x2ee>
    24cc:	8e 85       	ldd	r24, Y+14	; 0x0e
    24ce:	9f 85       	ldd	r25, Y+15	; 0x0f
    24d0:	83 36       	cpi	r24, 0x63	; 99
    24d2:	91 05       	cpc	r25, r1
    24d4:	09 f4       	brne	.+2      	; 0x24d8 <Info_Check+0x90>
    24d6:	7e c0       	rjmp	.+252    	; 0x25d4 <Info_Check+0x18c>
    24d8:	2e 85       	ldd	r18, Y+14	; 0x0e
    24da:	3f 85       	ldd	r19, Y+15	; 0x0f
    24dc:	24 36       	cpi	r18, 0x64	; 100
    24de:	31 05       	cpc	r19, r1
    24e0:	64 f4       	brge	.+24     	; 0x24fa <Info_Check+0xb2>
    24e2:	8e 85       	ldd	r24, Y+14	; 0x0e
    24e4:	9f 85       	ldd	r25, Y+15	; 0x0f
    24e6:	81 36       	cpi	r24, 0x61	; 97
    24e8:	91 05       	cpc	r25, r1
    24ea:	d1 f0       	breq	.+52     	; 0x2520 <Info_Check+0xd8>
    24ec:	2e 85       	ldd	r18, Y+14	; 0x0e
    24ee:	3f 85       	ldd	r19, Y+15	; 0x0f
    24f0:	22 36       	cpi	r18, 0x62	; 98
    24f2:	31 05       	cpc	r19, r1
    24f4:	09 f4       	brne	.+2      	; 0x24f8 <Info_Check+0xb0>
    24f6:	41 c0       	rjmp	.+130    	; 0x257a <Info_Check+0x132>
    24f8:	1e c1       	rjmp	.+572    	; 0x2736 <Info_Check+0x2ee>
    24fa:	8e 85       	ldd	r24, Y+14	; 0x0e
    24fc:	9f 85       	ldd	r25, Y+15	; 0x0f
    24fe:	85 36       	cpi	r24, 0x65	; 101
    2500:	91 05       	cpc	r25, r1
    2502:	09 f4       	brne	.+2      	; 0x2506 <Info_Check+0xbe>
    2504:	c1 c0       	rjmp	.+386    	; 0x2688 <Info_Check+0x240>
    2506:	2e 85       	ldd	r18, Y+14	; 0x0e
    2508:	3f 85       	ldd	r19, Y+15	; 0x0f
    250a:	25 36       	cpi	r18, 0x65	; 101
    250c:	31 05       	cpc	r19, r1
    250e:	0c f4       	brge	.+2      	; 0x2512 <Info_Check+0xca>
    2510:	8e c0       	rjmp	.+284    	; 0x262e <Info_Check+0x1e6>
    2512:	8e 85       	ldd	r24, Y+14	; 0x0e
    2514:	9f 85       	ldd	r25, Y+15	; 0x0f
    2516:	86 36       	cpi	r24, 0x66	; 102
    2518:	91 05       	cpc	r25, r1
    251a:	09 f4       	brne	.+2      	; 0x251e <Info_Check+0xd6>
    251c:	e1 c0       	rjmp	.+450    	; 0x26e0 <Info_Check+0x298>
    251e:	0b c1       	rjmp	.+534    	; 0x2736 <Info_Check+0x2ee>
	{
	case 'A':
	case 'a':
		Read_Info(0,Memory_Data,8);
    2520:	9e 01       	movw	r18, r28
    2522:	2e 5f       	subi	r18, 0xFE	; 254
    2524:	3f 4f       	sbci	r19, 0xFF	; 255
    2526:	80 e0       	ldi	r24, 0x00	; 0
    2528:	90 e0       	ldi	r25, 0x00	; 0
    252a:	b9 01       	movw	r22, r18
    252c:	48 e0       	ldi	r20, 0x08	; 8
    252e:	0e 94 7d 11 	call	0x22fa	; 0x22fa <Read_Info>
		Check=strcmp(Memory_Data,Input);
    2532:	ce 01       	movw	r24, r28
    2534:	02 96       	adiw	r24, 0x02	; 2
    2536:	2b 85       	ldd	r18, Y+11	; 0x0b
    2538:	3c 85       	ldd	r19, Y+12	; 0x0c
    253a:	b9 01       	movw	r22, r18
    253c:	0e 94 36 22 	call	0x446c	; 0x446c <strcmp>
    2540:	89 83       	std	Y+1, r24	; 0x01
		if(Check==0)
    2542:	89 81       	ldd	r24, Y+1	; 0x01
    2544:	88 23       	and	r24, r24
    2546:	09 f0       	breq	.+2      	; 0x254a <Info_Check+0x102>
    2548:	f6 c0       	rjmp	.+492    	; 0x2736 <Info_Check+0x2ee>
		{
			Read_Info(48,Memory_Data,8);
    254a:	9e 01       	movw	r18, r28
    254c:	2e 5f       	subi	r18, 0xFE	; 254
    254e:	3f 4f       	sbci	r19, 0xFF	; 255
    2550:	80 e3       	ldi	r24, 0x30	; 48
    2552:	90 e0       	ldi	r25, 0x00	; 0
    2554:	b9 01       	movw	r22, r18
    2556:	48 e0       	ldi	r20, 0x08	; 8
    2558:	0e 94 7d 11 	call	0x22fa	; 0x22fa <Read_Info>
			Check=strcmp(Memory_Data,Input);
    255c:	ce 01       	movw	r24, r28
    255e:	02 96       	adiw	r24, 0x02	; 2
    2560:	2b 85       	ldd	r18, Y+11	; 0x0b
    2562:	3c 85       	ldd	r19, Y+12	; 0x0c
    2564:	b9 01       	movw	r22, r18
    2566:	0e 94 36 22 	call	0x446c	; 0x446c <strcmp>
    256a:	89 83       	std	Y+1, r24	; 0x01
			if(Check==0)
    256c:	89 81       	ldd	r24, Y+1	; 0x01
    256e:	88 23       	and	r24, r24
    2570:	09 f0       	breq	.+2      	; 0x2574 <Info_Check+0x12c>
    2572:	e1 c0       	rjmp	.+450    	; 0x2736 <Info_Check+0x2ee>
				return 2;
    2574:	92 e0       	ldi	r25, 0x02	; 2
    2576:	9d 87       	std	Y+13, r25	; 0x0d
    2578:	df c0       	rjmp	.+446    	; 0x2738 <Info_Check+0x2f0>
		}
		break;
	case 'B':
	case 'b':
		Read_Info(8,Memory_Data,8);
    257a:	9e 01       	movw	r18, r28
    257c:	2e 5f       	subi	r18, 0xFE	; 254
    257e:	3f 4f       	sbci	r19, 0xFF	; 255
    2580:	88 e0       	ldi	r24, 0x08	; 8
    2582:	90 e0       	ldi	r25, 0x00	; 0
    2584:	b9 01       	movw	r22, r18
    2586:	48 e0       	ldi	r20, 0x08	; 8
    2588:	0e 94 7d 11 	call	0x22fa	; 0x22fa <Read_Info>
		Check=strcmp(Memory_Data,Input);
    258c:	ce 01       	movw	r24, r28
    258e:	02 96       	adiw	r24, 0x02	; 2
    2590:	2b 85       	ldd	r18, Y+11	; 0x0b
    2592:	3c 85       	ldd	r19, Y+12	; 0x0c
    2594:	b9 01       	movw	r22, r18
    2596:	0e 94 36 22 	call	0x446c	; 0x446c <strcmp>
    259a:	89 83       	std	Y+1, r24	; 0x01
		if(Check==0)
    259c:	89 81       	ldd	r24, Y+1	; 0x01
    259e:	88 23       	and	r24, r24
    25a0:	09 f0       	breq	.+2      	; 0x25a4 <Info_Check+0x15c>
    25a2:	c9 c0       	rjmp	.+402    	; 0x2736 <Info_Check+0x2ee>
		{
			Read_Info(56,Memory_Data,8);
    25a4:	9e 01       	movw	r18, r28
    25a6:	2e 5f       	subi	r18, 0xFE	; 254
    25a8:	3f 4f       	sbci	r19, 0xFF	; 255
    25aa:	88 e3       	ldi	r24, 0x38	; 56
    25ac:	90 e0       	ldi	r25, 0x00	; 0
    25ae:	b9 01       	movw	r22, r18
    25b0:	48 e0       	ldi	r20, 0x08	; 8
    25b2:	0e 94 7d 11 	call	0x22fa	; 0x22fa <Read_Info>
			Check=strcmp(Memory_Data,Input);
    25b6:	ce 01       	movw	r24, r28
    25b8:	02 96       	adiw	r24, 0x02	; 2
    25ba:	2b 85       	ldd	r18, Y+11	; 0x0b
    25bc:	3c 85       	ldd	r19, Y+12	; 0x0c
    25be:	b9 01       	movw	r22, r18
    25c0:	0e 94 36 22 	call	0x446c	; 0x446c <strcmp>
    25c4:	89 83       	std	Y+1, r24	; 0x01
			if(Check==0)
    25c6:	89 81       	ldd	r24, Y+1	; 0x01
    25c8:	88 23       	and	r24, r24
    25ca:	09 f0       	breq	.+2      	; 0x25ce <Info_Check+0x186>
    25cc:	b4 c0       	rjmp	.+360    	; 0x2736 <Info_Check+0x2ee>
				return 1;
    25ce:	21 e0       	ldi	r18, 0x01	; 1
    25d0:	2d 87       	std	Y+13, r18	; 0x0d
    25d2:	b2 c0       	rjmp	.+356    	; 0x2738 <Info_Check+0x2f0>
		}
		break;
	case 'C':
	case 'c':
		Read_Info(16,Memory_Data,8);
    25d4:	9e 01       	movw	r18, r28
    25d6:	2e 5f       	subi	r18, 0xFE	; 254
    25d8:	3f 4f       	sbci	r19, 0xFF	; 255
    25da:	80 e1       	ldi	r24, 0x10	; 16
    25dc:	90 e0       	ldi	r25, 0x00	; 0
    25de:	b9 01       	movw	r22, r18
    25e0:	48 e0       	ldi	r20, 0x08	; 8
    25e2:	0e 94 7d 11 	call	0x22fa	; 0x22fa <Read_Info>
		Check=strcmp(Memory_Data,Input);
    25e6:	ce 01       	movw	r24, r28
    25e8:	02 96       	adiw	r24, 0x02	; 2
    25ea:	2b 85       	ldd	r18, Y+11	; 0x0b
    25ec:	3c 85       	ldd	r19, Y+12	; 0x0c
    25ee:	b9 01       	movw	r22, r18
    25f0:	0e 94 36 22 	call	0x446c	; 0x446c <strcmp>
    25f4:	89 83       	std	Y+1, r24	; 0x01
		if(Check==0)
    25f6:	89 81       	ldd	r24, Y+1	; 0x01
    25f8:	88 23       	and	r24, r24
    25fa:	09 f0       	breq	.+2      	; 0x25fe <Info_Check+0x1b6>
    25fc:	9c c0       	rjmp	.+312    	; 0x2736 <Info_Check+0x2ee>
		{
			Read_Info(64,Memory_Data,8);
    25fe:	9e 01       	movw	r18, r28
    2600:	2e 5f       	subi	r18, 0xFE	; 254
    2602:	3f 4f       	sbci	r19, 0xFF	; 255
    2604:	80 e4       	ldi	r24, 0x40	; 64
    2606:	90 e0       	ldi	r25, 0x00	; 0
    2608:	b9 01       	movw	r22, r18
    260a:	48 e0       	ldi	r20, 0x08	; 8
    260c:	0e 94 7d 11 	call	0x22fa	; 0x22fa <Read_Info>
			Check=strcmp(Memory_Data,Input);
    2610:	ce 01       	movw	r24, r28
    2612:	02 96       	adiw	r24, 0x02	; 2
    2614:	2b 85       	ldd	r18, Y+11	; 0x0b
    2616:	3c 85       	ldd	r19, Y+12	; 0x0c
    2618:	b9 01       	movw	r22, r18
    261a:	0e 94 36 22 	call	0x446c	; 0x446c <strcmp>
    261e:	89 83       	std	Y+1, r24	; 0x01
			if(Check==0)
    2620:	89 81       	ldd	r24, Y+1	; 0x01
    2622:	88 23       	and	r24, r24
    2624:	09 f0       	breq	.+2      	; 0x2628 <Info_Check+0x1e0>
    2626:	87 c0       	rjmp	.+270    	; 0x2736 <Info_Check+0x2ee>
				return 1;
    2628:	31 e0       	ldi	r19, 0x01	; 1
    262a:	3d 87       	std	Y+13, r19	; 0x0d
    262c:	85 c0       	rjmp	.+266    	; 0x2738 <Info_Check+0x2f0>
		}
		break;
	case 'D':
	case 'd':
		Read_Info(24,Memory_Data,8);
    262e:	9e 01       	movw	r18, r28
    2630:	2e 5f       	subi	r18, 0xFE	; 254
    2632:	3f 4f       	sbci	r19, 0xFF	; 255
    2634:	88 e1       	ldi	r24, 0x18	; 24
    2636:	90 e0       	ldi	r25, 0x00	; 0
    2638:	b9 01       	movw	r22, r18
    263a:	48 e0       	ldi	r20, 0x08	; 8
    263c:	0e 94 7d 11 	call	0x22fa	; 0x22fa <Read_Info>
		Check=strcmp(Memory_Data,Input);
    2640:	ce 01       	movw	r24, r28
    2642:	02 96       	adiw	r24, 0x02	; 2
    2644:	2b 85       	ldd	r18, Y+11	; 0x0b
    2646:	3c 85       	ldd	r19, Y+12	; 0x0c
    2648:	b9 01       	movw	r22, r18
    264a:	0e 94 36 22 	call	0x446c	; 0x446c <strcmp>
    264e:	89 83       	std	Y+1, r24	; 0x01
		if(Check==0)
    2650:	89 81       	ldd	r24, Y+1	; 0x01
    2652:	88 23       	and	r24, r24
    2654:	09 f0       	breq	.+2      	; 0x2658 <Info_Check+0x210>
    2656:	6f c0       	rjmp	.+222    	; 0x2736 <Info_Check+0x2ee>
		{
			Read_Info(72,Memory_Data,8);
    2658:	9e 01       	movw	r18, r28
    265a:	2e 5f       	subi	r18, 0xFE	; 254
    265c:	3f 4f       	sbci	r19, 0xFF	; 255
    265e:	88 e4       	ldi	r24, 0x48	; 72
    2660:	90 e0       	ldi	r25, 0x00	; 0
    2662:	b9 01       	movw	r22, r18
    2664:	48 e0       	ldi	r20, 0x08	; 8
    2666:	0e 94 7d 11 	call	0x22fa	; 0x22fa <Read_Info>
			Check=strcmp(Memory_Data,Input);
    266a:	ce 01       	movw	r24, r28
    266c:	02 96       	adiw	r24, 0x02	; 2
    266e:	2b 85       	ldd	r18, Y+11	; 0x0b
    2670:	3c 85       	ldd	r19, Y+12	; 0x0c
    2672:	b9 01       	movw	r22, r18
    2674:	0e 94 36 22 	call	0x446c	; 0x446c <strcmp>
    2678:	89 83       	std	Y+1, r24	; 0x01
			if(Check==0)
    267a:	89 81       	ldd	r24, Y+1	; 0x01
    267c:	88 23       	and	r24, r24
    267e:	09 f0       	breq	.+2      	; 0x2682 <Info_Check+0x23a>
    2680:	5a c0       	rjmp	.+180    	; 0x2736 <Info_Check+0x2ee>
				return 1;
    2682:	81 e0       	ldi	r24, 0x01	; 1
    2684:	8d 87       	std	Y+13, r24	; 0x0d
    2686:	58 c0       	rjmp	.+176    	; 0x2738 <Info_Check+0x2f0>
		}
		break;
	case 'E':
	case 'e':
		Read_Info(32,Memory_Data,8);
    2688:	9e 01       	movw	r18, r28
    268a:	2e 5f       	subi	r18, 0xFE	; 254
    268c:	3f 4f       	sbci	r19, 0xFF	; 255
    268e:	80 e2       	ldi	r24, 0x20	; 32
    2690:	90 e0       	ldi	r25, 0x00	; 0
    2692:	b9 01       	movw	r22, r18
    2694:	48 e0       	ldi	r20, 0x08	; 8
    2696:	0e 94 7d 11 	call	0x22fa	; 0x22fa <Read_Info>
		Check=strcmp(Memory_Data,Input);
    269a:	ce 01       	movw	r24, r28
    269c:	02 96       	adiw	r24, 0x02	; 2
    269e:	2b 85       	ldd	r18, Y+11	; 0x0b
    26a0:	3c 85       	ldd	r19, Y+12	; 0x0c
    26a2:	b9 01       	movw	r22, r18
    26a4:	0e 94 36 22 	call	0x446c	; 0x446c <strcmp>
    26a8:	89 83       	std	Y+1, r24	; 0x01
		if(Check==0)
    26aa:	89 81       	ldd	r24, Y+1	; 0x01
    26ac:	88 23       	and	r24, r24
    26ae:	09 f0       	breq	.+2      	; 0x26b2 <Info_Check+0x26a>
    26b0:	42 c0       	rjmp	.+132    	; 0x2736 <Info_Check+0x2ee>
		{
			Read_Info(80,Memory_Data,8);
    26b2:	9e 01       	movw	r18, r28
    26b4:	2e 5f       	subi	r18, 0xFE	; 254
    26b6:	3f 4f       	sbci	r19, 0xFF	; 255
    26b8:	80 e5       	ldi	r24, 0x50	; 80
    26ba:	90 e0       	ldi	r25, 0x00	; 0
    26bc:	b9 01       	movw	r22, r18
    26be:	48 e0       	ldi	r20, 0x08	; 8
    26c0:	0e 94 7d 11 	call	0x22fa	; 0x22fa <Read_Info>
			Check=strcmp(Memory_Data,Input);
    26c4:	ce 01       	movw	r24, r28
    26c6:	02 96       	adiw	r24, 0x02	; 2
    26c8:	2b 85       	ldd	r18, Y+11	; 0x0b
    26ca:	3c 85       	ldd	r19, Y+12	; 0x0c
    26cc:	b9 01       	movw	r22, r18
    26ce:	0e 94 36 22 	call	0x446c	; 0x446c <strcmp>
    26d2:	89 83       	std	Y+1, r24	; 0x01
			if(Check==0)
    26d4:	89 81       	ldd	r24, Y+1	; 0x01
    26d6:	88 23       	and	r24, r24
    26d8:	71 f5       	brne	.+92     	; 0x2736 <Info_Check+0x2ee>
				return 1;
    26da:	91 e0       	ldi	r25, 0x01	; 1
    26dc:	9d 87       	std	Y+13, r25	; 0x0d
    26de:	2c c0       	rjmp	.+88     	; 0x2738 <Info_Check+0x2f0>
		}
		break;
	case 'F':
	case 'f':
		Read_Info(40,Memory_Data,8);
    26e0:	9e 01       	movw	r18, r28
    26e2:	2e 5f       	subi	r18, 0xFE	; 254
    26e4:	3f 4f       	sbci	r19, 0xFF	; 255
    26e6:	88 e2       	ldi	r24, 0x28	; 40
    26e8:	90 e0       	ldi	r25, 0x00	; 0
    26ea:	b9 01       	movw	r22, r18
    26ec:	48 e0       	ldi	r20, 0x08	; 8
    26ee:	0e 94 7d 11 	call	0x22fa	; 0x22fa <Read_Info>
		Check=strcmp(Memory_Data,Input);
    26f2:	ce 01       	movw	r24, r28
    26f4:	02 96       	adiw	r24, 0x02	; 2
    26f6:	2b 85       	ldd	r18, Y+11	; 0x0b
    26f8:	3c 85       	ldd	r19, Y+12	; 0x0c
    26fa:	b9 01       	movw	r22, r18
    26fc:	0e 94 36 22 	call	0x446c	; 0x446c <strcmp>
    2700:	89 83       	std	Y+1, r24	; 0x01
		if(Check==0)
    2702:	89 81       	ldd	r24, Y+1	; 0x01
    2704:	88 23       	and	r24, r24
    2706:	b9 f4       	brne	.+46     	; 0x2736 <Info_Check+0x2ee>
		{
			Read_Info(88,Memory_Data,8);
    2708:	9e 01       	movw	r18, r28
    270a:	2e 5f       	subi	r18, 0xFE	; 254
    270c:	3f 4f       	sbci	r19, 0xFF	; 255
    270e:	88 e5       	ldi	r24, 0x58	; 88
    2710:	90 e0       	ldi	r25, 0x00	; 0
    2712:	b9 01       	movw	r22, r18
    2714:	48 e0       	ldi	r20, 0x08	; 8
    2716:	0e 94 7d 11 	call	0x22fa	; 0x22fa <Read_Info>
			Check=strcmp(Memory_Data,Input);
    271a:	ce 01       	movw	r24, r28
    271c:	02 96       	adiw	r24, 0x02	; 2
    271e:	2b 85       	ldd	r18, Y+11	; 0x0b
    2720:	3c 85       	ldd	r19, Y+12	; 0x0c
    2722:	b9 01       	movw	r22, r18
    2724:	0e 94 36 22 	call	0x446c	; 0x446c <strcmp>
    2728:	89 83       	std	Y+1, r24	; 0x01
			if(Check==0)
    272a:	89 81       	ldd	r24, Y+1	; 0x01
    272c:	88 23       	and	r24, r24
    272e:	19 f4       	brne	.+6      	; 0x2736 <Info_Check+0x2ee>
				return 1;
    2730:	21 e0       	ldi	r18, 0x01	; 1
    2732:	2d 87       	std	Y+13, r18	; 0x0d
    2734:	01 c0       	rjmp	.+2      	; 0x2738 <Info_Check+0x2f0>
		}
		break;
	default:
		break;
	}
	return 0;
    2736:	1d 86       	std	Y+13, r1	; 0x0d
    2738:	8d 85       	ldd	r24, Y+13	; 0x0d
}
    273a:	2f 96       	adiw	r28, 0x0f	; 15
    273c:	0f b6       	in	r0, 0x3f	; 63
    273e:	f8 94       	cli
    2740:	de bf       	out	0x3e, r29	; 62
    2742:	0f be       	out	0x3f, r0	; 63
    2744:	cd bf       	out	0x3d, r28	; 61
    2746:	cf 91       	pop	r28
    2748:	df 91       	pop	r29
    274a:	08 95       	ret

0000274c <Keypad_enuInit>:
#include "../MCAL/DIO_int.h"
#include "Keypad_priv.h"
#include <util/delay.h>

ES_t Keypad_enuInit(void)
{
    274c:	df 93       	push	r29
    274e:	cf 93       	push	r28
    2750:	0f 92       	push	r0
    2752:	cd b7       	in	r28, 0x3d	; 61
    2754:	de b7       	in	r29, 0x3e	; 62
	ES_t Local_enuErrorState = ES_NOK;
    2756:	19 82       	std	Y+1, r1	; 0x01

	DIO_enuSetPinDirection(C1_PORT , C1_PIN , DIO_u8OUTPUT);
    2758:	81 e0       	ldi	r24, 0x01	; 1
    275a:	64 e0       	ldi	r22, 0x04	; 4
    275c:	41 e0       	ldi	r20, 0x01	; 1
    275e:	0e 94 9e 07 	call	0xf3c	; 0xf3c <DIO_enuSetPinDirection>
	DIO_enuSetPinDirection(C2_PORT , C2_PIN , DIO_u8OUTPUT);
    2762:	81 e0       	ldi	r24, 0x01	; 1
    2764:	65 e0       	ldi	r22, 0x05	; 5
    2766:	41 e0       	ldi	r20, 0x01	; 1
    2768:	0e 94 9e 07 	call	0xf3c	; 0xf3c <DIO_enuSetPinDirection>
	DIO_enuSetPinDirection(C3_PORT , C3_PIN , DIO_u8OUTPUT);
    276c:	81 e0       	ldi	r24, 0x01	; 1
    276e:	66 e0       	ldi	r22, 0x06	; 6
    2770:	41 e0       	ldi	r20, 0x01	; 1
    2772:	0e 94 9e 07 	call	0xf3c	; 0xf3c <DIO_enuSetPinDirection>
	DIO_enuSetPinDirection(C4_PORT , C4_PIN , DIO_u8OUTPUT);
    2776:	81 e0       	ldi	r24, 0x01	; 1
    2778:	67 e0       	ldi	r22, 0x07	; 7
    277a:	41 e0       	ldi	r20, 0x01	; 1
    277c:	0e 94 9e 07 	call	0xf3c	; 0xf3c <DIO_enuSetPinDirection>

	DIO_enuSetPinDirection(R1_PORT , R1_PIN , DIO_u8INPUT);
    2780:	82 e0       	ldi	r24, 0x02	; 2
    2782:	63 e0       	ldi	r22, 0x03	; 3
    2784:	40 e0       	ldi	r20, 0x00	; 0
    2786:	0e 94 9e 07 	call	0xf3c	; 0xf3c <DIO_enuSetPinDirection>
	DIO_enuSetPinDirection(R2_PORT , R2_PIN , DIO_u8INPUT);
    278a:	82 e0       	ldi	r24, 0x02	; 2
    278c:	64 e0       	ldi	r22, 0x04	; 4
    278e:	40 e0       	ldi	r20, 0x00	; 0
    2790:	0e 94 9e 07 	call	0xf3c	; 0xf3c <DIO_enuSetPinDirection>
	DIO_enuSetPinDirection(R3_PORT , R3_PIN , DIO_u8INPUT);
    2794:	82 e0       	ldi	r24, 0x02	; 2
    2796:	65 e0       	ldi	r22, 0x05	; 5
    2798:	40 e0       	ldi	r20, 0x00	; 0
    279a:	0e 94 9e 07 	call	0xf3c	; 0xf3c <DIO_enuSetPinDirection>
	DIO_enuSetPinDirection(R4_PORT , R4_PIN , DIO_u8INPUT);
    279e:	82 e0       	ldi	r24, 0x02	; 2
    27a0:	66 e0       	ldi	r22, 0x06	; 6
    27a2:	40 e0       	ldi	r20, 0x00	; 0
    27a4:	0e 94 9e 07 	call	0xf3c	; 0xf3c <DIO_enuSetPinDirection>

	DIO_enuSetPinValue(C1_PORT , C1_PIN , DIO_u8HIGH);
    27a8:	81 e0       	ldi	r24, 0x01	; 1
    27aa:	64 e0       	ldi	r22, 0x04	; 4
    27ac:	41 e0       	ldi	r20, 0x01	; 1
    27ae:	0e 94 8a 08 	call	0x1114	; 0x1114 <DIO_enuSetPinValue>
	DIO_enuSetPinValue(C2_PORT , C2_PIN , DIO_u8HIGH);
    27b2:	81 e0       	ldi	r24, 0x01	; 1
    27b4:	65 e0       	ldi	r22, 0x05	; 5
    27b6:	41 e0       	ldi	r20, 0x01	; 1
    27b8:	0e 94 8a 08 	call	0x1114	; 0x1114 <DIO_enuSetPinValue>
	DIO_enuSetPinValue(C3_PORT , C3_PIN , DIO_u8HIGH);
    27bc:	81 e0       	ldi	r24, 0x01	; 1
    27be:	66 e0       	ldi	r22, 0x06	; 6
    27c0:	41 e0       	ldi	r20, 0x01	; 1
    27c2:	0e 94 8a 08 	call	0x1114	; 0x1114 <DIO_enuSetPinValue>
	DIO_enuSetPinValue(C4_PORT , C4_PIN , DIO_u8HIGH);
    27c6:	81 e0       	ldi	r24, 0x01	; 1
    27c8:	67 e0       	ldi	r22, 0x07	; 7
    27ca:	41 e0       	ldi	r20, 0x01	; 1
    27cc:	0e 94 8a 08 	call	0x1114	; 0x1114 <DIO_enuSetPinValue>

	DIO_enuSetPinValue(R1_PORT , R1_PIN , DIO_u8PULL_UP);
    27d0:	82 e0       	ldi	r24, 0x02	; 2
    27d2:	63 e0       	ldi	r22, 0x03	; 3
    27d4:	41 e0       	ldi	r20, 0x01	; 1
    27d6:	0e 94 8a 08 	call	0x1114	; 0x1114 <DIO_enuSetPinValue>
	DIO_enuSetPinValue(R2_PORT , R2_PIN , DIO_u8PULL_UP);
    27da:	82 e0       	ldi	r24, 0x02	; 2
    27dc:	64 e0       	ldi	r22, 0x04	; 4
    27de:	41 e0       	ldi	r20, 0x01	; 1
    27e0:	0e 94 8a 08 	call	0x1114	; 0x1114 <DIO_enuSetPinValue>
	DIO_enuSetPinValue(R3_PORT , R3_PIN , DIO_u8PULL_UP);
    27e4:	82 e0       	ldi	r24, 0x02	; 2
    27e6:	65 e0       	ldi	r22, 0x05	; 5
    27e8:	41 e0       	ldi	r20, 0x01	; 1
    27ea:	0e 94 8a 08 	call	0x1114	; 0x1114 <DIO_enuSetPinValue>
	DIO_enuSetPinValue(R4_PORT , R4_PIN , DIO_u8PULL_UP);
    27ee:	82 e0       	ldi	r24, 0x02	; 2
    27f0:	66 e0       	ldi	r22, 0x06	; 6
    27f2:	41 e0       	ldi	r20, 0x01	; 1
    27f4:	0e 94 8a 08 	call	0x1114	; 0x1114 <DIO_enuSetPinValue>

	return Local_enuErrorState;
    27f8:	89 81       	ldd	r24, Y+1	; 0x01
}
    27fa:	0f 90       	pop	r0
    27fc:	cf 91       	pop	r28
    27fe:	df 91       	pop	r29
    2800:	08 95       	ret

00002802 <Keypad_enuGetPressedKey>:

ES_t Keypad_enuGetPressedKey(u8 * Copy_pu8KeyValue)
{
    2802:	df 93       	push	r29
    2804:	cf 93       	push	r28
    2806:	cd b7       	in	r28, 0x3d	; 61
    2808:	de b7       	in	r29, 0x3e	; 62
    280a:	ea 97       	sbiw	r28, 0x3a	; 58
    280c:	0f b6       	in	r0, 0x3f	; 63
    280e:	f8 94       	cli
    2810:	de bf       	out	0x3e, r29	; 62
    2812:	0f be       	out	0x3f, r0	; 63
    2814:	cd bf       	out	0x3d, r28	; 61
    2816:	9c ab       	std	Y+52, r25	; 0x34
    2818:	8b ab       	std	Y+51, r24	; 0x33
	ES_t Local_enuErrorState = ES_NOK;
    281a:	19 8a       	std	Y+17, r1	; 0x11

	u8 Local_Au8ColPorts [COL_NUM] = {C1_PORT,C2_PORT,C3_PORT,C4_PORT};
    281c:	81 e0       	ldi	r24, 0x01	; 1
    281e:	8a 8b       	std	Y+18, r24	; 0x12
    2820:	81 e0       	ldi	r24, 0x01	; 1
    2822:	8b 8b       	std	Y+19, r24	; 0x13
    2824:	81 e0       	ldi	r24, 0x01	; 1
    2826:	8c 8b       	std	Y+20, r24	; 0x14
    2828:	81 e0       	ldi	r24, 0x01	; 1
    282a:	8d 8b       	std	Y+21, r24	; 0x15
	u8 Local_Au8ColPins  [COL_NUM] = {C1_PIN, C2_PIN, C3_PIN, C4_PIN};
    282c:	84 e0       	ldi	r24, 0x04	; 4
    282e:	8e 8b       	std	Y+22, r24	; 0x16
    2830:	85 e0       	ldi	r24, 0x05	; 5
    2832:	8f 8b       	std	Y+23, r24	; 0x17
    2834:	86 e0       	ldi	r24, 0x06	; 6
    2836:	88 8f       	std	Y+24, r24	; 0x18
    2838:	87 e0       	ldi	r24, 0x07	; 7
    283a:	89 8f       	std	Y+25, r24	; 0x19

	u8 Local_Au8RowPorts [ROW_NUM] = {R1_PORT,R2_PORT,R3_PORT,R4_PORT};
    283c:	82 e0       	ldi	r24, 0x02	; 2
    283e:	8a 8f       	std	Y+26, r24	; 0x1a
    2840:	82 e0       	ldi	r24, 0x02	; 2
    2842:	8b 8f       	std	Y+27, r24	; 0x1b
    2844:	82 e0       	ldi	r24, 0x02	; 2
    2846:	8c 8f       	std	Y+28, r24	; 0x1c
    2848:	82 e0       	ldi	r24, 0x02	; 2
    284a:	8d 8f       	std	Y+29, r24	; 0x1d
	u8 Local_Au8RowPins  [ROW_NUM] = {R1_PIN, R2_PIN, R3_PIN, R4_PIN};
    284c:	83 e0       	ldi	r24, 0x03	; 3
    284e:	8e 8f       	std	Y+30, r24	; 0x1e
    2850:	84 e0       	ldi	r24, 0x04	; 4
    2852:	8f 8f       	std	Y+31, r24	; 0x1f
    2854:	85 e0       	ldi	r24, 0x05	; 5
    2856:	88 a3       	std	Y+32, r24	; 0x20
    2858:	86 e0       	ldi	r24, 0x06	; 6
    285a:	89 a3       	std	Y+33, r24	; 0x21

	u8 Local_u8ColIter , Local_u8RowIter , Local_u8PinValue;

	for (Local_u8ColIter=0; Local_u8ColIter < COL_NUM ; Local_u8ColIter++ )
    285c:	18 8a       	std	Y+16, r1	; 0x10
    285e:	3f c1       	rjmp	.+638    	; 0x2ade <Keypad_enuGetPressedKey+0x2dc>
	{
		DIO_enuSetPinValue(Local_Au8ColPorts[Local_u8ColIter], Local_Au8ColPins[Local_u8ColIter], DIO_u8LOW);
    2860:	88 89       	ldd	r24, Y+16	; 0x10
    2862:	28 2f       	mov	r18, r24
    2864:	30 e0       	ldi	r19, 0x00	; 0
    2866:	ce 01       	movw	r24, r28
    2868:	42 96       	adiw	r24, 0x12	; 18
    286a:	fc 01       	movw	r30, r24
    286c:	e2 0f       	add	r30, r18
    286e:	f3 1f       	adc	r31, r19
    2870:	40 81       	ld	r20, Z
    2872:	88 89       	ldd	r24, Y+16	; 0x10
    2874:	28 2f       	mov	r18, r24
    2876:	30 e0       	ldi	r19, 0x00	; 0
    2878:	ce 01       	movw	r24, r28
    287a:	46 96       	adiw	r24, 0x16	; 22
    287c:	fc 01       	movw	r30, r24
    287e:	e2 0f       	add	r30, r18
    2880:	f3 1f       	adc	r31, r19
    2882:	90 81       	ld	r25, Z
    2884:	84 2f       	mov	r24, r20
    2886:	69 2f       	mov	r22, r25
    2888:	40 e0       	ldi	r20, 0x00	; 0
    288a:	0e 94 8a 08 	call	0x1114	; 0x1114 <DIO_enuSetPinValue>
		for (Local_u8RowIter=0; Local_u8RowIter < ROW_NUM ; Local_u8RowIter++)
    288e:	1f 86       	std	Y+15, r1	; 0x0f
    2890:	08 c1       	rjmp	.+528    	; 0x2aa2 <Keypad_enuGetPressedKey+0x2a0>
		{
			DIO_enuGetPinValue(Local_Au8RowPorts[Local_u8RowIter], Local_Au8RowPins[Local_u8RowIter], &Local_u8PinValue);
    2892:	8f 85       	ldd	r24, Y+15	; 0x0f
    2894:	28 2f       	mov	r18, r24
    2896:	30 e0       	ldi	r19, 0x00	; 0
    2898:	ce 01       	movw	r24, r28
    289a:	4a 96       	adiw	r24, 0x1a	; 26
    289c:	fc 01       	movw	r30, r24
    289e:	e2 0f       	add	r30, r18
    28a0:	f3 1f       	adc	r31, r19
    28a2:	40 81       	ld	r20, Z
    28a4:	8f 85       	ldd	r24, Y+15	; 0x0f
    28a6:	28 2f       	mov	r18, r24
    28a8:	30 e0       	ldi	r19, 0x00	; 0
    28aa:	ce 01       	movw	r24, r28
    28ac:	4e 96       	adiw	r24, 0x1e	; 30
    28ae:	fc 01       	movw	r30, r24
    28b0:	e2 0f       	add	r30, r18
    28b2:	f3 1f       	adc	r31, r19
    28b4:	90 81       	ld	r25, Z
    28b6:	9e 01       	movw	r18, r28
    28b8:	2e 5d       	subi	r18, 0xDE	; 222
    28ba:	3f 4f       	sbci	r19, 0xFF	; 255
    28bc:	84 2f       	mov	r24, r20
    28be:	69 2f       	mov	r22, r25
    28c0:	a9 01       	movw	r20, r18
    28c2:	0e 94 07 0a 	call	0x140e	; 0x140e <DIO_enuGetPinValue>
			if (! Local_u8PinValue)
    28c6:	8a a1       	ldd	r24, Y+34	; 0x22
    28c8:	88 23       	and	r24, r24
    28ca:	09 f0       	breq	.+2      	; 0x28ce <Keypad_enuGetPressedKey+0xcc>
    28cc:	e7 c0       	rjmp	.+462    	; 0x2a9c <Keypad_enuGetPressedKey+0x29a>
    28ce:	80 e0       	ldi	r24, 0x00	; 0
    28d0:	90 e0       	ldi	r25, 0x00	; 0
    28d2:	a0 e2       	ldi	r26, 0x20	; 32
    28d4:	b1 e4       	ldi	r27, 0x41	; 65
    28d6:	8b 87       	std	Y+11, r24	; 0x0b
    28d8:	9c 87       	std	Y+12, r25	; 0x0c
    28da:	ad 87       	std	Y+13, r26	; 0x0d
    28dc:	be 87       	std	Y+14, r27	; 0x0e
 */
void
_delay_ms(double __ms)
{
	uint16_t __ticks;
	double __tmp = ((F_CPU) / 4e3) * __ms;
    28de:	6b 85       	ldd	r22, Y+11	; 0x0b
    28e0:	7c 85       	ldd	r23, Y+12	; 0x0c
    28e2:	8d 85       	ldd	r24, Y+13	; 0x0d
    28e4:	9e 85       	ldd	r25, Y+14	; 0x0e
    28e6:	20 e0       	ldi	r18, 0x00	; 0
    28e8:	30 e0       	ldi	r19, 0x00	; 0
    28ea:	4a e7       	ldi	r20, 0x7A	; 122
    28ec:	55 e4       	ldi	r21, 0x45	; 69
    28ee:	0e 94 1f 02 	call	0x43e	; 0x43e <__mulsf3>
    28f2:	dc 01       	movw	r26, r24
    28f4:	cb 01       	movw	r24, r22
    28f6:	8f 83       	std	Y+7, r24	; 0x07
    28f8:	98 87       	std	Y+8, r25	; 0x08
    28fa:	a9 87       	std	Y+9, r26	; 0x09
    28fc:	ba 87       	std	Y+10, r27	; 0x0a
	if (__tmp < 1.0)
    28fe:	6f 81       	ldd	r22, Y+7	; 0x07
    2900:	78 85       	ldd	r23, Y+8	; 0x08
    2902:	89 85       	ldd	r24, Y+9	; 0x09
    2904:	9a 85       	ldd	r25, Y+10	; 0x0a
    2906:	20 e0       	ldi	r18, 0x00	; 0
    2908:	30 e0       	ldi	r19, 0x00	; 0
    290a:	40 e8       	ldi	r20, 0x80	; 128
    290c:	5f e3       	ldi	r21, 0x3F	; 63
    290e:	0e 94 79 03 	call	0x6f2	; 0x6f2 <__ltsf2>
    2912:	88 23       	and	r24, r24
    2914:	2c f4       	brge	.+10     	; 0x2920 <Keypad_enuGetPressedKey+0x11e>
		__ticks = 1;
    2916:	81 e0       	ldi	r24, 0x01	; 1
    2918:	90 e0       	ldi	r25, 0x00	; 0
    291a:	9e 83       	std	Y+6, r25	; 0x06
    291c:	8d 83       	std	Y+5, r24	; 0x05
    291e:	3f c0       	rjmp	.+126    	; 0x299e <Keypad_enuGetPressedKey+0x19c>
	else if (__tmp > 65535)
    2920:	6f 81       	ldd	r22, Y+7	; 0x07
    2922:	78 85       	ldd	r23, Y+8	; 0x08
    2924:	89 85       	ldd	r24, Y+9	; 0x09
    2926:	9a 85       	ldd	r25, Y+10	; 0x0a
    2928:	20 e0       	ldi	r18, 0x00	; 0
    292a:	3f ef       	ldi	r19, 0xFF	; 255
    292c:	4f e7       	ldi	r20, 0x7F	; 127
    292e:	57 e4       	ldi	r21, 0x47	; 71
    2930:	0e 94 19 03 	call	0x632	; 0x632 <__gtsf2>
    2934:	18 16       	cp	r1, r24
    2936:	4c f5       	brge	.+82     	; 0x298a <Keypad_enuGetPressedKey+0x188>
	{
		//	__ticks = requested delay in 1/10 ms
		__ticks = (uint16_t) (__ms * 10.0);
    2938:	6b 85       	ldd	r22, Y+11	; 0x0b
    293a:	7c 85       	ldd	r23, Y+12	; 0x0c
    293c:	8d 85       	ldd	r24, Y+13	; 0x0d
    293e:	9e 85       	ldd	r25, Y+14	; 0x0e
    2940:	20 e0       	ldi	r18, 0x00	; 0
    2942:	30 e0       	ldi	r19, 0x00	; 0
    2944:	40 e2       	ldi	r20, 0x20	; 32
    2946:	51 e4       	ldi	r21, 0x41	; 65
    2948:	0e 94 1f 02 	call	0x43e	; 0x43e <__mulsf3>
    294c:	dc 01       	movw	r26, r24
    294e:	cb 01       	movw	r24, r22
    2950:	bc 01       	movw	r22, r24
    2952:	cd 01       	movw	r24, r26
    2954:	0e 94 49 00 	call	0x92	; 0x92 <__fixunssfsi>
    2958:	dc 01       	movw	r26, r24
    295a:	cb 01       	movw	r24, r22
    295c:	9e 83       	std	Y+6, r25	; 0x06
    295e:	8d 83       	std	Y+5, r24	; 0x05
    2960:	0f c0       	rjmp	.+30     	; 0x2980 <Keypad_enuGetPressedKey+0x17e>
    2962:	80 e9       	ldi	r24, 0x90	; 144
    2964:	91 e0       	ldi	r25, 0x01	; 1
    2966:	9c 83       	std	Y+4, r25	; 0x04
    2968:	8b 83       	std	Y+3, r24	; 0x03
    296a:	8b 81       	ldd	r24, Y+3	; 0x03
    296c:	9c 81       	ldd	r25, Y+4	; 0x04
    296e:	01 97       	sbiw	r24, 0x01	; 1
    2970:	f1 f7       	brne	.-4      	; 0x296e <Keypad_enuGetPressedKey+0x16c>
    2972:	9c 83       	std	Y+4, r25	; 0x04
    2974:	8b 83       	std	Y+3, r24	; 0x03
		while(__ticks)
		{
			// wait 1/10 ms
			_delay_loop_2(((F_CPU) / 4e3) / 10);
			__ticks --;
    2976:	8d 81       	ldd	r24, Y+5	; 0x05
    2978:	9e 81       	ldd	r25, Y+6	; 0x06
    297a:	01 97       	sbiw	r24, 0x01	; 1
    297c:	9e 83       	std	Y+6, r25	; 0x06
    297e:	8d 83       	std	Y+5, r24	; 0x05
		__ticks = 1;
	else if (__tmp > 65535)
	{
		//	__ticks = requested delay in 1/10 ms
		__ticks = (uint16_t) (__ms * 10.0);
		while(__ticks)
    2980:	8d 81       	ldd	r24, Y+5	; 0x05
    2982:	9e 81       	ldd	r25, Y+6	; 0x06
    2984:	00 97       	sbiw	r24, 0x00	; 0
    2986:	69 f7       	brne	.-38     	; 0x2962 <Keypad_enuGetPressedKey+0x160>
    2988:	14 c0       	rjmp	.+40     	; 0x29b2 <Keypad_enuGetPressedKey+0x1b0>
			__ticks --;
		}
		return;
	}
	else
		__ticks = (uint16_t)__tmp;
    298a:	6f 81       	ldd	r22, Y+7	; 0x07
    298c:	78 85       	ldd	r23, Y+8	; 0x08
    298e:	89 85       	ldd	r24, Y+9	; 0x09
    2990:	9a 85       	ldd	r25, Y+10	; 0x0a
    2992:	0e 94 49 00 	call	0x92	; 0x92 <__fixunssfsi>
    2996:	dc 01       	movw	r26, r24
    2998:	cb 01       	movw	r24, r22
    299a:	9e 83       	std	Y+6, r25	; 0x06
    299c:	8d 83       	std	Y+5, r24	; 0x05
    299e:	8d 81       	ldd	r24, Y+5	; 0x05
    29a0:	9e 81       	ldd	r25, Y+6	; 0x06
    29a2:	9a 83       	std	Y+2, r25	; 0x02
    29a4:	89 83       	std	Y+1, r24	; 0x01
    29a6:	89 81       	ldd	r24, Y+1	; 0x01
    29a8:	9a 81       	ldd	r25, Y+2	; 0x02
    29aa:	01 97       	sbiw	r24, 0x01	; 1
    29ac:	f1 f7       	brne	.-4      	; 0x29aa <Keypad_enuGetPressedKey+0x1a8>
    29ae:	9a 83       	std	Y+2, r25	; 0x02
    29b0:	89 83       	std	Y+1, r24	; 0x01
			{
				_delay_ms(10);
				DIO_enuGetPinValue(Local_Au8RowPorts[Local_u8RowIter], Local_Au8RowPins[Local_u8RowIter], &Local_u8PinValue);
    29b2:	8f 85       	ldd	r24, Y+15	; 0x0f
    29b4:	28 2f       	mov	r18, r24
    29b6:	30 e0       	ldi	r19, 0x00	; 0
    29b8:	ce 01       	movw	r24, r28
    29ba:	4a 96       	adiw	r24, 0x1a	; 26
    29bc:	fc 01       	movw	r30, r24
    29be:	e2 0f       	add	r30, r18
    29c0:	f3 1f       	adc	r31, r19
    29c2:	40 81       	ld	r20, Z
    29c4:	8f 85       	ldd	r24, Y+15	; 0x0f
    29c6:	28 2f       	mov	r18, r24
    29c8:	30 e0       	ldi	r19, 0x00	; 0
    29ca:	ce 01       	movw	r24, r28
    29cc:	4e 96       	adiw	r24, 0x1e	; 30
    29ce:	fc 01       	movw	r30, r24
    29d0:	e2 0f       	add	r30, r18
    29d2:	f3 1f       	adc	r31, r19
    29d4:	90 81       	ld	r25, Z
    29d6:	9e 01       	movw	r18, r28
    29d8:	2e 5d       	subi	r18, 0xDE	; 222
    29da:	3f 4f       	sbci	r19, 0xFF	; 255
    29dc:	84 2f       	mov	r24, r20
    29de:	69 2f       	mov	r22, r25
    29e0:	a9 01       	movw	r20, r18
    29e2:	0e 94 07 0a 	call	0x140e	; 0x140e <DIO_enuGetPinValue>
				if (! Local_u8PinValue)
    29e6:	8a a1       	ldd	r24, Y+34	; 0x22
    29e8:	88 23       	and	r24, r24
    29ea:	09 f0       	breq	.+2      	; 0x29ee <Keypad_enuGetPressedKey+0x1ec>
    29ec:	57 c0       	rjmp	.+174    	; 0x2a9c <Keypad_enuGetPressedKey+0x29a>
    29ee:	1a c0       	rjmp	.+52     	; 0x2a24 <Keypad_enuGetPressedKey+0x222>
				{
					while (! Local_u8PinValue)
						DIO_enuGetPinValue(Local_Au8RowPorts[Local_u8RowIter], Local_Au8RowPins[Local_u8RowIter], &Local_u8PinValue);
    29f0:	8f 85       	ldd	r24, Y+15	; 0x0f
    29f2:	28 2f       	mov	r18, r24
    29f4:	30 e0       	ldi	r19, 0x00	; 0
    29f6:	ce 01       	movw	r24, r28
    29f8:	4a 96       	adiw	r24, 0x1a	; 26
    29fa:	fc 01       	movw	r30, r24
    29fc:	e2 0f       	add	r30, r18
    29fe:	f3 1f       	adc	r31, r19
    2a00:	40 81       	ld	r20, Z
    2a02:	8f 85       	ldd	r24, Y+15	; 0x0f
    2a04:	28 2f       	mov	r18, r24
    2a06:	30 e0       	ldi	r19, 0x00	; 0
    2a08:	ce 01       	movw	r24, r28
    2a0a:	4e 96       	adiw	r24, 0x1e	; 30
    2a0c:	fc 01       	movw	r30, r24
    2a0e:	e2 0f       	add	r30, r18
    2a10:	f3 1f       	adc	r31, r19
    2a12:	90 81       	ld	r25, Z
    2a14:	9e 01       	movw	r18, r28
    2a16:	2e 5d       	subi	r18, 0xDE	; 222
    2a18:	3f 4f       	sbci	r19, 0xFF	; 255
    2a1a:	84 2f       	mov	r24, r20
    2a1c:	69 2f       	mov	r22, r25
    2a1e:	a9 01       	movw	r20, r18
    2a20:	0e 94 07 0a 	call	0x140e	; 0x140e <DIO_enuGetPinValue>
			{
				_delay_ms(10);
				DIO_enuGetPinValue(Local_Au8RowPorts[Local_u8RowIter], Local_Au8RowPins[Local_u8RowIter], &Local_u8PinValue);
				if (! Local_u8PinValue)
				{
					while (! Local_u8PinValue)
    2a24:	8a a1       	ldd	r24, Y+34	; 0x22
    2a26:	88 23       	and	r24, r24
    2a28:	19 f3       	breq	.-58     	; 0x29f0 <Keypad_enuGetPressedKey+0x1ee>
						DIO_enuGetPinValue(Local_Au8RowPorts[Local_u8RowIter], Local_Au8RowPins[Local_u8RowIter], &Local_u8PinValue);

					u8 Local_Au8Values[ROW_NUM][COL_NUM] = KEYPAD_VALUES;
    2a2a:	ce 01       	movw	r24, r28
    2a2c:	83 96       	adiw	r24, 0x23	; 35
    2a2e:	9f ab       	std	Y+55, r25	; 0x37
    2a30:	8e ab       	std	Y+54, r24	; 0x36
    2a32:	ed e1       	ldi	r30, 0x1D	; 29
    2a34:	f4 e0       	ldi	r31, 0x04	; 4
    2a36:	f9 af       	std	Y+57, r31	; 0x39
    2a38:	e8 af       	std	Y+56, r30	; 0x38
    2a3a:	f0 e1       	ldi	r31, 0x10	; 16
    2a3c:	fa af       	std	Y+58, r31	; 0x3a
    2a3e:	e8 ad       	ldd	r30, Y+56	; 0x38
    2a40:	f9 ad       	ldd	r31, Y+57	; 0x39
    2a42:	00 80       	ld	r0, Z
    2a44:	88 ad       	ldd	r24, Y+56	; 0x38
    2a46:	99 ad       	ldd	r25, Y+57	; 0x39
    2a48:	01 96       	adiw	r24, 0x01	; 1
    2a4a:	99 af       	std	Y+57, r25	; 0x39
    2a4c:	88 af       	std	Y+56, r24	; 0x38
    2a4e:	ee a9       	ldd	r30, Y+54	; 0x36
    2a50:	ff a9       	ldd	r31, Y+55	; 0x37
    2a52:	00 82       	st	Z, r0
    2a54:	8e a9       	ldd	r24, Y+54	; 0x36
    2a56:	9f a9       	ldd	r25, Y+55	; 0x37
    2a58:	01 96       	adiw	r24, 0x01	; 1
    2a5a:	9f ab       	std	Y+55, r25	; 0x37
    2a5c:	8e ab       	std	Y+54, r24	; 0x36
    2a5e:	9a ad       	ldd	r25, Y+58	; 0x3a
    2a60:	91 50       	subi	r25, 0x01	; 1
    2a62:	9a af       	std	Y+58, r25	; 0x3a
    2a64:	ea ad       	ldd	r30, Y+58	; 0x3a
    2a66:	ee 23       	and	r30, r30
    2a68:	51 f7       	brne	.-44     	; 0x2a3e <Keypad_enuGetPressedKey+0x23c>

					*Copy_pu8KeyValue = Local_Au8Values[Local_u8RowIter][Local_u8ColIter];
    2a6a:	8f 85       	ldd	r24, Y+15	; 0x0f
    2a6c:	28 2f       	mov	r18, r24
    2a6e:	30 e0       	ldi	r19, 0x00	; 0
    2a70:	88 89       	ldd	r24, Y+16	; 0x10
    2a72:	48 2f       	mov	r20, r24
    2a74:	50 e0       	ldi	r21, 0x00	; 0
    2a76:	22 0f       	add	r18, r18
    2a78:	33 1f       	adc	r19, r19
    2a7a:	22 0f       	add	r18, r18
    2a7c:	33 1f       	adc	r19, r19
    2a7e:	ce 01       	movw	r24, r28
    2a80:	01 96       	adiw	r24, 0x01	; 1
    2a82:	82 0f       	add	r24, r18
    2a84:	93 1f       	adc	r25, r19
    2a86:	84 0f       	add	r24, r20
    2a88:	95 1f       	adc	r25, r21
    2a8a:	fc 01       	movw	r30, r24
    2a8c:	b2 96       	adiw	r30, 0x22	; 34
    2a8e:	80 81       	ld	r24, Z
    2a90:	eb a9       	ldd	r30, Y+51	; 0x33
    2a92:	fc a9       	ldd	r31, Y+52	; 0x34
    2a94:	80 83       	st	Z, r24
					return ES_OK;
    2a96:	f1 e0       	ldi	r31, 0x01	; 1
    2a98:	fd ab       	std	Y+53, r31	; 0x35
    2a9a:	2b c0       	rjmp	.+86     	; 0x2af2 <Keypad_enuGetPressedKey+0x2f0>
	u8 Local_u8ColIter , Local_u8RowIter , Local_u8PinValue;

	for (Local_u8ColIter=0; Local_u8ColIter < COL_NUM ; Local_u8ColIter++ )
	{
		DIO_enuSetPinValue(Local_Au8ColPorts[Local_u8ColIter], Local_Au8ColPins[Local_u8ColIter], DIO_u8LOW);
		for (Local_u8RowIter=0; Local_u8RowIter < ROW_NUM ; Local_u8RowIter++)
    2a9c:	8f 85       	ldd	r24, Y+15	; 0x0f
    2a9e:	8f 5f       	subi	r24, 0xFF	; 255
    2aa0:	8f 87       	std	Y+15, r24	; 0x0f
    2aa2:	8f 85       	ldd	r24, Y+15	; 0x0f
    2aa4:	84 30       	cpi	r24, 0x04	; 4
    2aa6:	08 f4       	brcc	.+2      	; 0x2aaa <Keypad_enuGetPressedKey+0x2a8>
    2aa8:	f4 ce       	rjmp	.-536    	; 0x2892 <Keypad_enuGetPressedKey+0x90>
					*Copy_pu8KeyValue = Local_Au8Values[Local_u8RowIter][Local_u8ColIter];
					return ES_OK;
				}
			}
		}
		DIO_enuSetPinValue(Local_Au8ColPorts[Local_u8ColIter], Local_Au8ColPins[Local_u8ColIter], DIO_u8HIGH);
    2aaa:	88 89       	ldd	r24, Y+16	; 0x10
    2aac:	28 2f       	mov	r18, r24
    2aae:	30 e0       	ldi	r19, 0x00	; 0
    2ab0:	ce 01       	movw	r24, r28
    2ab2:	42 96       	adiw	r24, 0x12	; 18
    2ab4:	fc 01       	movw	r30, r24
    2ab6:	e2 0f       	add	r30, r18
    2ab8:	f3 1f       	adc	r31, r19
    2aba:	40 81       	ld	r20, Z
    2abc:	88 89       	ldd	r24, Y+16	; 0x10
    2abe:	28 2f       	mov	r18, r24
    2ac0:	30 e0       	ldi	r19, 0x00	; 0
    2ac2:	ce 01       	movw	r24, r28
    2ac4:	46 96       	adiw	r24, 0x16	; 22
    2ac6:	fc 01       	movw	r30, r24
    2ac8:	e2 0f       	add	r30, r18
    2aca:	f3 1f       	adc	r31, r19
    2acc:	90 81       	ld	r25, Z
    2ace:	84 2f       	mov	r24, r20
    2ad0:	69 2f       	mov	r22, r25
    2ad2:	41 e0       	ldi	r20, 0x01	; 1
    2ad4:	0e 94 8a 08 	call	0x1114	; 0x1114 <DIO_enuSetPinValue>
	u8 Local_Au8RowPorts [ROW_NUM] = {R1_PORT,R2_PORT,R3_PORT,R4_PORT};
	u8 Local_Au8RowPins  [ROW_NUM] = {R1_PIN, R2_PIN, R3_PIN, R4_PIN};

	u8 Local_u8ColIter , Local_u8RowIter , Local_u8PinValue;

	for (Local_u8ColIter=0; Local_u8ColIter < COL_NUM ; Local_u8ColIter++ )
    2ad8:	88 89       	ldd	r24, Y+16	; 0x10
    2ada:	8f 5f       	subi	r24, 0xFF	; 255
    2adc:	88 8b       	std	Y+16, r24	; 0x10
    2ade:	88 89       	ldd	r24, Y+16	; 0x10
    2ae0:	84 30       	cpi	r24, 0x04	; 4
    2ae2:	08 f4       	brcc	.+2      	; 0x2ae6 <Keypad_enuGetPressedKey+0x2e4>
    2ae4:	bd ce       	rjmp	.-646    	; 0x2860 <Keypad_enuGetPressedKey+0x5e>
				}
			}
		}
		DIO_enuSetPinValue(Local_Au8ColPorts[Local_u8ColIter], Local_Au8ColPins[Local_u8ColIter], DIO_u8HIGH);
	}
	*Copy_pu8KeyValue = KEYPAD_NOT_PRESSED;
    2ae6:	eb a9       	ldd	r30, Y+51	; 0x33
    2ae8:	fc a9       	ldd	r31, Y+52	; 0x34
    2aea:	8f ef       	ldi	r24, 0xFF	; 255
    2aec:	80 83       	st	Z, r24
	return Local_enuErrorState;
    2aee:	89 89       	ldd	r24, Y+17	; 0x11
    2af0:	8d ab       	std	Y+53, r24	; 0x35
    2af2:	8d a9       	ldd	r24, Y+53	; 0x35
}
    2af4:	ea 96       	adiw	r28, 0x3a	; 58
    2af6:	0f b6       	in	r0, 0x3f	; 63
    2af8:	f8 94       	cli
    2afa:	de bf       	out	0x3e, r29	; 62
    2afc:	0f be       	out	0x3f, r0	; 63
    2afe:	cd bf       	out	0x3d, r28	; 61
    2b00:	cf 91       	pop	r28
    2b02:	df 91       	pop	r29
    2b04:	08 95       	ret

00002b06 <KeyPad_Press_Check>:


u8 KeyPad_Press_Check(void)
{
    2b06:	df 93       	push	r29
    2b08:	cf 93       	push	r28
    2b0a:	00 d0       	rcall	.+0      	; 0x2b0c <KeyPad_Press_Check+0x6>
    2b0c:	cd b7       	in	r28, 0x3d	; 61
    2b0e:	de b7       	in	r29, 0x3e	; 62
	u8 key;
	Keypad_enuGetPressedKey(&key);
    2b10:	ce 01       	movw	r24, r28
    2b12:	01 96       	adiw	r24, 0x01	; 1
    2b14:	0e 94 01 14 	call	0x2802	; 0x2802 <Keypad_enuGetPressedKey>
	if (key != KEYPAD_NOT_PRESSED)
    2b18:	89 81       	ldd	r24, Y+1	; 0x01
    2b1a:	8f 3f       	cpi	r24, 0xFF	; 255
    2b1c:	19 f0       	breq	.+6      	; 0x2b24 <KeyPad_Press_Check+0x1e>
	{
		return 1;
    2b1e:	81 e0       	ldi	r24, 0x01	; 1
    2b20:	8a 83       	std	Y+2, r24	; 0x02
    2b22:	02 c0       	rjmp	.+4      	; 0x2b28 <KeyPad_Press_Check+0x22>
	}
	else
	{
		return KEYPAD_NOT_PRESSED;
    2b24:	8f ef       	ldi	r24, 0xFF	; 255
    2b26:	8a 83       	std	Y+2, r24	; 0x02
    2b28:	8a 81       	ldd	r24, Y+2	; 0x02
	}

}
    2b2a:	0f 90       	pop	r0
    2b2c:	0f 90       	pop	r0
    2b2e:	cf 91       	pop	r28
    2b30:	df 91       	pop	r29
    2b32:	08 95       	ret

00002b34 <KeyPad_Typing>:
void KeyPad_Typing(u8 *Data)
{
    2b34:	df 93       	push	r29
    2b36:	cf 93       	push	r28
    2b38:	00 d0       	rcall	.+0      	; 0x2b3a <KeyPad_Typing+0x6>
    2b3a:	00 d0       	rcall	.+0      	; 0x2b3c <KeyPad_Typing+0x8>
    2b3c:	cd b7       	in	r28, 0x3d	; 61
    2b3e:	de b7       	in	r29, 0x3e	; 62
    2b40:	9c 83       	std	Y+4, r25	; 0x04
    2b42:	8b 83       	std	Y+3, r24	; 0x03
	u8 key,i;
	while(KeyPad_Press_Check()== KEYPAD_NOT_PRESSED);
    2b44:	0e 94 83 15 	call	0x2b06	; 0x2b06 <KeyPad_Press_Check>
    2b48:	8f 3f       	cpi	r24, 0xFF	; 255
    2b4a:	e1 f3       	breq	.-8      	; 0x2b44 <KeyPad_Typing+0x10>
	for(i=0;i<4;i++)
    2b4c:	19 82       	std	Y+1, r1	; 0x01
    2b4e:	15 c0       	rjmp	.+42     	; 0x2b7a <KeyPad_Typing+0x46>
	{
	  Keypad_enuGetPressedKey(&key);
    2b50:	ce 01       	movw	r24, r28
    2b52:	02 96       	adiw	r24, 0x02	; 2
    2b54:	0e 94 01 14 	call	0x2802	; 0x2802 <Keypad_enuGetPressedKey>
	  LCD_enuSendString('*');
    2b58:	8a e2       	ldi	r24, 0x2A	; 42
    2b5a:	90 e0       	ldi	r25, 0x00	; 0
    2b5c:	0e 94 11 18 	call	0x3022	; 0x3022 <LCD_enuSendString>
	  Data[i]=key;
    2b60:	89 81       	ldd	r24, Y+1	; 0x01
    2b62:	28 2f       	mov	r18, r24
    2b64:	30 e0       	ldi	r19, 0x00	; 0
    2b66:	8b 81       	ldd	r24, Y+3	; 0x03
    2b68:	9c 81       	ldd	r25, Y+4	; 0x04
    2b6a:	fc 01       	movw	r30, r24
    2b6c:	e2 0f       	add	r30, r18
    2b6e:	f3 1f       	adc	r31, r19
    2b70:	8a 81       	ldd	r24, Y+2	; 0x02
    2b72:	80 83       	st	Z, r24
}
void KeyPad_Typing(u8 *Data)
{
	u8 key,i;
	while(KeyPad_Press_Check()== KEYPAD_NOT_PRESSED);
	for(i=0;i<4;i++)
    2b74:	89 81       	ldd	r24, Y+1	; 0x01
    2b76:	8f 5f       	subi	r24, 0xFF	; 255
    2b78:	89 83       	std	Y+1, r24	; 0x01
    2b7a:	89 81       	ldd	r24, Y+1	; 0x01
    2b7c:	84 30       	cpi	r24, 0x04	; 4
    2b7e:	40 f3       	brcs	.-48     	; 0x2b50 <KeyPad_Typing+0x1c>
	{
	  Keypad_enuGetPressedKey(&key);
	  LCD_enuSendString('*');
	  Data[i]=key;
	}
}
    2b80:	0f 90       	pop	r0
    2b82:	0f 90       	pop	r0
    2b84:	0f 90       	pop	r0
    2b86:	0f 90       	pop	r0
    2b88:	cf 91       	pop	r28
    2b8a:	df 91       	pop	r29
    2b8c:	08 95       	ret

00002b8e <LCD_enuInit>:
#include "LCD_config.h"
#include "LCD_priv.h"
#include <util/delay.h>

ES_t LCD_enuInit(void)
{
    2b8e:	df 93       	push	r29
    2b90:	cf 93       	push	r28
    2b92:	cd b7       	in	r28, 0x3d	; 61
    2b94:	de b7       	in	r29, 0x3e	; 62
    2b96:	e9 97       	sbiw	r28, 0x39	; 57
    2b98:	0f b6       	in	r0, 0x3f	; 63
    2b9a:	f8 94       	cli
    2b9c:	de bf       	out	0x3e, r29	; 62
    2b9e:	0f be       	out	0x3f, r0	; 63
    2ba0:	cd bf       	out	0x3d, r28	; 61
	ES_t Local_u8ErrorState = ES_NOK;
    2ba2:	19 ae       	std	Y+57, r1	; 0x39

	DIO_enuSetPinDirection(RS_PORT, RS_PIN, DIO_u8OUTPUT);
    2ba4:	81 e0       	ldi	r24, 0x01	; 1
    2ba6:	61 e0       	ldi	r22, 0x01	; 1
    2ba8:	41 e0       	ldi	r20, 0x01	; 1
    2baa:	0e 94 9e 07 	call	0xf3c	; 0xf3c <DIO_enuSetPinDirection>
	DIO_enuSetPinDirection(RW_PORT, RW_PIN, DIO_u8OUTPUT);
    2bae:	81 e0       	ldi	r24, 0x01	; 1
    2bb0:	62 e0       	ldi	r22, 0x02	; 2
    2bb2:	41 e0       	ldi	r20, 0x01	; 1
    2bb4:	0e 94 9e 07 	call	0xf3c	; 0xf3c <DIO_enuSetPinDirection>
	DIO_enuSetPinDirection(EN_PORT, EN_PIN, DIO_u8OUTPUT);
    2bb8:	80 e0       	ldi	r24, 0x00	; 0
    2bba:	61 e0       	ldi	r22, 0x01	; 1
    2bbc:	41 e0       	ldi	r20, 0x01	; 1
    2bbe:	0e 94 9e 07 	call	0xf3c	; 0xf3c <DIO_enuSetPinDirection>

	DIO_enuSetPinDirection(D7_PORT, D7_PIN, DIO_u8OUTPUT);
    2bc2:	80 e0       	ldi	r24, 0x00	; 0
    2bc4:	67 e0       	ldi	r22, 0x07	; 7
    2bc6:	41 e0       	ldi	r20, 0x01	; 1
    2bc8:	0e 94 9e 07 	call	0xf3c	; 0xf3c <DIO_enuSetPinDirection>
	DIO_enuSetPinDirection(D6_PORT, D6_PIN, DIO_u8OUTPUT);
    2bcc:	80 e0       	ldi	r24, 0x00	; 0
    2bce:	66 e0       	ldi	r22, 0x06	; 6
    2bd0:	41 e0       	ldi	r20, 0x01	; 1
    2bd2:	0e 94 9e 07 	call	0xf3c	; 0xf3c <DIO_enuSetPinDirection>
	DIO_enuSetPinDirection(D5_PORT, D5_PIN, DIO_u8OUTPUT);
    2bd6:	80 e0       	ldi	r24, 0x00	; 0
    2bd8:	65 e0       	ldi	r22, 0x05	; 5
    2bda:	41 e0       	ldi	r20, 0x01	; 1
    2bdc:	0e 94 9e 07 	call	0xf3c	; 0xf3c <DIO_enuSetPinDirection>
	DIO_enuSetPinDirection(D4_PORT, D4_PIN, DIO_u8OUTPUT);
    2be0:	80 e0       	ldi	r24, 0x00	; 0
    2be2:	64 e0       	ldi	r22, 0x04	; 4
    2be4:	41 e0       	ldi	r20, 0x01	; 1
    2be6:	0e 94 9e 07 	call	0xf3c	; 0xf3c <DIO_enuSetPinDirection>
    2bea:	80 e0       	ldi	r24, 0x00	; 0
    2bec:	90 e0       	ldi	r25, 0x00	; 0
    2bee:	ac e0       	ldi	r26, 0x0C	; 12
    2bf0:	b2 e4       	ldi	r27, 0x42	; 66
    2bf2:	8d ab       	std	Y+53, r24	; 0x35
    2bf4:	9e ab       	std	Y+54, r25	; 0x36
    2bf6:	af ab       	std	Y+55, r26	; 0x37
    2bf8:	b8 af       	std	Y+56, r27	; 0x38
 */
void
_delay_ms(double __ms)
{
	uint16_t __ticks;
	double __tmp = ((F_CPU) / 4e3) * __ms;
    2bfa:	6d a9       	ldd	r22, Y+53	; 0x35
    2bfc:	7e a9       	ldd	r23, Y+54	; 0x36
    2bfe:	8f a9       	ldd	r24, Y+55	; 0x37
    2c00:	98 ad       	ldd	r25, Y+56	; 0x38
    2c02:	20 e0       	ldi	r18, 0x00	; 0
    2c04:	30 e0       	ldi	r19, 0x00	; 0
    2c06:	4a e7       	ldi	r20, 0x7A	; 122
    2c08:	55 e4       	ldi	r21, 0x45	; 69
    2c0a:	0e 94 1f 02 	call	0x43e	; 0x43e <__mulsf3>
    2c0e:	dc 01       	movw	r26, r24
    2c10:	cb 01       	movw	r24, r22
    2c12:	89 ab       	std	Y+49, r24	; 0x31
    2c14:	9a ab       	std	Y+50, r25	; 0x32
    2c16:	ab ab       	std	Y+51, r26	; 0x33
    2c18:	bc ab       	std	Y+52, r27	; 0x34
	if (__tmp < 1.0)
    2c1a:	69 a9       	ldd	r22, Y+49	; 0x31
    2c1c:	7a a9       	ldd	r23, Y+50	; 0x32
    2c1e:	8b a9       	ldd	r24, Y+51	; 0x33
    2c20:	9c a9       	ldd	r25, Y+52	; 0x34
    2c22:	20 e0       	ldi	r18, 0x00	; 0
    2c24:	30 e0       	ldi	r19, 0x00	; 0
    2c26:	40 e8       	ldi	r20, 0x80	; 128
    2c28:	5f e3       	ldi	r21, 0x3F	; 63
    2c2a:	0e 94 79 03 	call	0x6f2	; 0x6f2 <__ltsf2>
    2c2e:	88 23       	and	r24, r24
    2c30:	2c f4       	brge	.+10     	; 0x2c3c <LCD_enuInit+0xae>
		__ticks = 1;
    2c32:	81 e0       	ldi	r24, 0x01	; 1
    2c34:	90 e0       	ldi	r25, 0x00	; 0
    2c36:	98 ab       	std	Y+48, r25	; 0x30
    2c38:	8f a7       	std	Y+47, r24	; 0x2f
    2c3a:	3f c0       	rjmp	.+126    	; 0x2cba <LCD_enuInit+0x12c>
	else if (__tmp > 65535)
    2c3c:	69 a9       	ldd	r22, Y+49	; 0x31
    2c3e:	7a a9       	ldd	r23, Y+50	; 0x32
    2c40:	8b a9       	ldd	r24, Y+51	; 0x33
    2c42:	9c a9       	ldd	r25, Y+52	; 0x34
    2c44:	20 e0       	ldi	r18, 0x00	; 0
    2c46:	3f ef       	ldi	r19, 0xFF	; 255
    2c48:	4f e7       	ldi	r20, 0x7F	; 127
    2c4a:	57 e4       	ldi	r21, 0x47	; 71
    2c4c:	0e 94 19 03 	call	0x632	; 0x632 <__gtsf2>
    2c50:	18 16       	cp	r1, r24
    2c52:	4c f5       	brge	.+82     	; 0x2ca6 <LCD_enuInit+0x118>
	{
		//	__ticks = requested delay in 1/10 ms
		__ticks = (uint16_t) (__ms * 10.0);
    2c54:	6d a9       	ldd	r22, Y+53	; 0x35
    2c56:	7e a9       	ldd	r23, Y+54	; 0x36
    2c58:	8f a9       	ldd	r24, Y+55	; 0x37
    2c5a:	98 ad       	ldd	r25, Y+56	; 0x38
    2c5c:	20 e0       	ldi	r18, 0x00	; 0
    2c5e:	30 e0       	ldi	r19, 0x00	; 0
    2c60:	40 e2       	ldi	r20, 0x20	; 32
    2c62:	51 e4       	ldi	r21, 0x41	; 65
    2c64:	0e 94 1f 02 	call	0x43e	; 0x43e <__mulsf3>
    2c68:	dc 01       	movw	r26, r24
    2c6a:	cb 01       	movw	r24, r22
    2c6c:	bc 01       	movw	r22, r24
    2c6e:	cd 01       	movw	r24, r26
    2c70:	0e 94 49 00 	call	0x92	; 0x92 <__fixunssfsi>
    2c74:	dc 01       	movw	r26, r24
    2c76:	cb 01       	movw	r24, r22
    2c78:	98 ab       	std	Y+48, r25	; 0x30
    2c7a:	8f a7       	std	Y+47, r24	; 0x2f
    2c7c:	0f c0       	rjmp	.+30     	; 0x2c9c <LCD_enuInit+0x10e>
    2c7e:	80 e9       	ldi	r24, 0x90	; 144
    2c80:	91 e0       	ldi	r25, 0x01	; 1
    2c82:	9e a7       	std	Y+46, r25	; 0x2e
    2c84:	8d a7       	std	Y+45, r24	; 0x2d
    2c86:	8d a5       	ldd	r24, Y+45	; 0x2d
    2c88:	9e a5       	ldd	r25, Y+46	; 0x2e
    2c8a:	01 97       	sbiw	r24, 0x01	; 1
    2c8c:	f1 f7       	brne	.-4      	; 0x2c8a <LCD_enuInit+0xfc>
    2c8e:	9e a7       	std	Y+46, r25	; 0x2e
    2c90:	8d a7       	std	Y+45, r24	; 0x2d
		while(__ticks)
		{
			// wait 1/10 ms
			_delay_loop_2(((F_CPU) / 4e3) / 10);
			__ticks --;
    2c92:	8f a5       	ldd	r24, Y+47	; 0x2f
    2c94:	98 a9       	ldd	r25, Y+48	; 0x30
    2c96:	01 97       	sbiw	r24, 0x01	; 1
    2c98:	98 ab       	std	Y+48, r25	; 0x30
    2c9a:	8f a7       	std	Y+47, r24	; 0x2f
		__ticks = 1;
	else if (__tmp > 65535)
	{
		//	__ticks = requested delay in 1/10 ms
		__ticks = (uint16_t) (__ms * 10.0);
		while(__ticks)
    2c9c:	8f a5       	ldd	r24, Y+47	; 0x2f
    2c9e:	98 a9       	ldd	r25, Y+48	; 0x30
    2ca0:	00 97       	sbiw	r24, 0x00	; 0
    2ca2:	69 f7       	brne	.-38     	; 0x2c7e <LCD_enuInit+0xf0>
    2ca4:	14 c0       	rjmp	.+40     	; 0x2cce <LCD_enuInit+0x140>
			__ticks --;
		}
		return;
	}
	else
		__ticks = (uint16_t)__tmp;
    2ca6:	69 a9       	ldd	r22, Y+49	; 0x31
    2ca8:	7a a9       	ldd	r23, Y+50	; 0x32
    2caa:	8b a9       	ldd	r24, Y+51	; 0x33
    2cac:	9c a9       	ldd	r25, Y+52	; 0x34
    2cae:	0e 94 49 00 	call	0x92	; 0x92 <__fixunssfsi>
    2cb2:	dc 01       	movw	r26, r24
    2cb4:	cb 01       	movw	r24, r22
    2cb6:	98 ab       	std	Y+48, r25	; 0x30
    2cb8:	8f a7       	std	Y+47, r24	; 0x2f
    2cba:	8f a5       	ldd	r24, Y+47	; 0x2f
    2cbc:	98 a9       	ldd	r25, Y+48	; 0x30
    2cbe:	9c a7       	std	Y+44, r25	; 0x2c
    2cc0:	8b a7       	std	Y+43, r24	; 0x2b
    2cc2:	8b a5       	ldd	r24, Y+43	; 0x2b
    2cc4:	9c a5       	ldd	r25, Y+44	; 0x2c
    2cc6:	01 97       	sbiw	r24, 0x01	; 1
    2cc8:	f1 f7       	brne	.-4      	; 0x2cc6 <LCD_enuInit+0x138>
    2cca:	9c a7       	std	Y+44, r25	; 0x2c
    2ccc:	8b a7       	std	Y+43, r24	; 0x2b

	_delay_ms(35);
#if LCD_MODE == FOUR_BIT

	DIO_enuSetPinValue(RS_PORT, RS_PIN , DIO_u8LOW);
    2cce:	81 e0       	ldi	r24, 0x01	; 1
    2cd0:	61 e0       	ldi	r22, 0x01	; 1
    2cd2:	40 e0       	ldi	r20, 0x00	; 0
    2cd4:	0e 94 8a 08 	call	0x1114	; 0x1114 <DIO_enuSetPinValue>
	LCD_enuWriteNLatch(0x28);
    2cd8:	88 e2       	ldi	r24, 0x28	; 40
    2cda:	0e 94 37 18 	call	0x306e	; 0x306e <LCD_enuWriteNLatch>
    2cde:	80 e0       	ldi	r24, 0x00	; 0
    2ce0:	90 e0       	ldi	r25, 0x00	; 0
    2ce2:	a0 e8       	ldi	r26, 0x80	; 128
    2ce4:	bf e3       	ldi	r27, 0x3F	; 63
    2ce6:	8f a3       	std	Y+39, r24	; 0x27
    2ce8:	98 a7       	std	Y+40, r25	; 0x28
    2cea:	a9 a7       	std	Y+41, r26	; 0x29
    2cec:	ba a7       	std	Y+42, r27	; 0x2a
 */
void
_delay_ms(double __ms)
{
	uint16_t __ticks;
	double __tmp = ((F_CPU) / 4e3) * __ms;
    2cee:	6f a1       	ldd	r22, Y+39	; 0x27
    2cf0:	78 a5       	ldd	r23, Y+40	; 0x28
    2cf2:	89 a5       	ldd	r24, Y+41	; 0x29
    2cf4:	9a a5       	ldd	r25, Y+42	; 0x2a
    2cf6:	20 e0       	ldi	r18, 0x00	; 0
    2cf8:	30 e0       	ldi	r19, 0x00	; 0
    2cfa:	4a e7       	ldi	r20, 0x7A	; 122
    2cfc:	55 e4       	ldi	r21, 0x45	; 69
    2cfe:	0e 94 1f 02 	call	0x43e	; 0x43e <__mulsf3>
    2d02:	dc 01       	movw	r26, r24
    2d04:	cb 01       	movw	r24, r22
    2d06:	8b a3       	std	Y+35, r24	; 0x23
    2d08:	9c a3       	std	Y+36, r25	; 0x24
    2d0a:	ad a3       	std	Y+37, r26	; 0x25
    2d0c:	be a3       	std	Y+38, r27	; 0x26
	if (__tmp < 1.0)
    2d0e:	6b a1       	ldd	r22, Y+35	; 0x23
    2d10:	7c a1       	ldd	r23, Y+36	; 0x24
    2d12:	8d a1       	ldd	r24, Y+37	; 0x25
    2d14:	9e a1       	ldd	r25, Y+38	; 0x26
    2d16:	20 e0       	ldi	r18, 0x00	; 0
    2d18:	30 e0       	ldi	r19, 0x00	; 0
    2d1a:	40 e8       	ldi	r20, 0x80	; 128
    2d1c:	5f e3       	ldi	r21, 0x3F	; 63
    2d1e:	0e 94 79 03 	call	0x6f2	; 0x6f2 <__ltsf2>
    2d22:	88 23       	and	r24, r24
    2d24:	2c f4       	brge	.+10     	; 0x2d30 <LCD_enuInit+0x1a2>
		__ticks = 1;
    2d26:	81 e0       	ldi	r24, 0x01	; 1
    2d28:	90 e0       	ldi	r25, 0x00	; 0
    2d2a:	9a a3       	std	Y+34, r25	; 0x22
    2d2c:	89 a3       	std	Y+33, r24	; 0x21
    2d2e:	3f c0       	rjmp	.+126    	; 0x2dae <LCD_enuInit+0x220>
	else if (__tmp > 65535)
    2d30:	6b a1       	ldd	r22, Y+35	; 0x23
    2d32:	7c a1       	ldd	r23, Y+36	; 0x24
    2d34:	8d a1       	ldd	r24, Y+37	; 0x25
    2d36:	9e a1       	ldd	r25, Y+38	; 0x26
    2d38:	20 e0       	ldi	r18, 0x00	; 0
    2d3a:	3f ef       	ldi	r19, 0xFF	; 255
    2d3c:	4f e7       	ldi	r20, 0x7F	; 127
    2d3e:	57 e4       	ldi	r21, 0x47	; 71
    2d40:	0e 94 19 03 	call	0x632	; 0x632 <__gtsf2>
    2d44:	18 16       	cp	r1, r24
    2d46:	4c f5       	brge	.+82     	; 0x2d9a <LCD_enuInit+0x20c>
	{
		//	__ticks = requested delay in 1/10 ms
		__ticks = (uint16_t) (__ms * 10.0);
    2d48:	6f a1       	ldd	r22, Y+39	; 0x27
    2d4a:	78 a5       	ldd	r23, Y+40	; 0x28
    2d4c:	89 a5       	ldd	r24, Y+41	; 0x29
    2d4e:	9a a5       	ldd	r25, Y+42	; 0x2a
    2d50:	20 e0       	ldi	r18, 0x00	; 0
    2d52:	30 e0       	ldi	r19, 0x00	; 0
    2d54:	40 e2       	ldi	r20, 0x20	; 32
    2d56:	51 e4       	ldi	r21, 0x41	; 65
    2d58:	0e 94 1f 02 	call	0x43e	; 0x43e <__mulsf3>
    2d5c:	dc 01       	movw	r26, r24
    2d5e:	cb 01       	movw	r24, r22
    2d60:	bc 01       	movw	r22, r24
    2d62:	cd 01       	movw	r24, r26
    2d64:	0e 94 49 00 	call	0x92	; 0x92 <__fixunssfsi>
    2d68:	dc 01       	movw	r26, r24
    2d6a:	cb 01       	movw	r24, r22
    2d6c:	9a a3       	std	Y+34, r25	; 0x22
    2d6e:	89 a3       	std	Y+33, r24	; 0x21
    2d70:	0f c0       	rjmp	.+30     	; 0x2d90 <LCD_enuInit+0x202>
    2d72:	80 e9       	ldi	r24, 0x90	; 144
    2d74:	91 e0       	ldi	r25, 0x01	; 1
    2d76:	98 a3       	std	Y+32, r25	; 0x20
    2d78:	8f 8f       	std	Y+31, r24	; 0x1f
    2d7a:	8f 8d       	ldd	r24, Y+31	; 0x1f
    2d7c:	98 a1       	ldd	r25, Y+32	; 0x20
    2d7e:	01 97       	sbiw	r24, 0x01	; 1
    2d80:	f1 f7       	brne	.-4      	; 0x2d7e <LCD_enuInit+0x1f0>
    2d82:	98 a3       	std	Y+32, r25	; 0x20
    2d84:	8f 8f       	std	Y+31, r24	; 0x1f
		while(__ticks)
		{
			// wait 1/10 ms
			_delay_loop_2(((F_CPU) / 4e3) / 10);
			__ticks --;
    2d86:	89 a1       	ldd	r24, Y+33	; 0x21
    2d88:	9a a1       	ldd	r25, Y+34	; 0x22
    2d8a:	01 97       	sbiw	r24, 0x01	; 1
    2d8c:	9a a3       	std	Y+34, r25	; 0x22
    2d8e:	89 a3       	std	Y+33, r24	; 0x21
		__ticks = 1;
	else if (__tmp > 65535)
	{
		//	__ticks = requested delay in 1/10 ms
		__ticks = (uint16_t) (__ms * 10.0);
		while(__ticks)
    2d90:	89 a1       	ldd	r24, Y+33	; 0x21
    2d92:	9a a1       	ldd	r25, Y+34	; 0x22
    2d94:	00 97       	sbiw	r24, 0x00	; 0
    2d96:	69 f7       	brne	.-38     	; 0x2d72 <LCD_enuInit+0x1e4>
    2d98:	14 c0       	rjmp	.+40     	; 0x2dc2 <LCD_enuInit+0x234>
			__ticks --;
		}
		return;
	}
	else
		__ticks = (uint16_t)__tmp;
    2d9a:	6b a1       	ldd	r22, Y+35	; 0x23
    2d9c:	7c a1       	ldd	r23, Y+36	; 0x24
    2d9e:	8d a1       	ldd	r24, Y+37	; 0x25
    2da0:	9e a1       	ldd	r25, Y+38	; 0x26
    2da2:	0e 94 49 00 	call	0x92	; 0x92 <__fixunssfsi>
    2da6:	dc 01       	movw	r26, r24
    2da8:	cb 01       	movw	r24, r22
    2daa:	9a a3       	std	Y+34, r25	; 0x22
    2dac:	89 a3       	std	Y+33, r24	; 0x21
    2dae:	89 a1       	ldd	r24, Y+33	; 0x21
    2db0:	9a a1       	ldd	r25, Y+34	; 0x22
    2db2:	9e 8f       	std	Y+30, r25	; 0x1e
    2db4:	8d 8f       	std	Y+29, r24	; 0x1d
    2db6:	8d 8d       	ldd	r24, Y+29	; 0x1d
    2db8:	9e 8d       	ldd	r25, Y+30	; 0x1e
    2dba:	01 97       	sbiw	r24, 0x01	; 1
    2dbc:	f1 f7       	brne	.-4      	; 0x2dba <LCD_enuInit+0x22c>
    2dbe:	9e 8f       	std	Y+30, r25	; 0x1e
    2dc0:	8d 8f       	std	Y+29, r24	; 0x1d
	LCD_enuWriteNLatch(0x38);

#endif

	_delay_ms(1);
	DIO_enuSetPinValue(RS_PORT, RS_PIN , DIO_u8LOW);
    2dc2:	81 e0       	ldi	r24, 0x01	; 1
    2dc4:	61 e0       	ldi	r22, 0x01	; 1
    2dc6:	40 e0       	ldi	r20, 0x00	; 0
    2dc8:	0e 94 8a 08 	call	0x1114	; 0x1114 <DIO_enuSetPinValue>
	LCD_enuWriteNLatch(0x0f);
    2dcc:	8f e0       	ldi	r24, 0x0F	; 15
    2dce:	0e 94 37 18 	call	0x306e	; 0x306e <LCD_enuWriteNLatch>
    2dd2:	80 e0       	ldi	r24, 0x00	; 0
    2dd4:	90 e0       	ldi	r25, 0x00	; 0
    2dd6:	a0 e8       	ldi	r26, 0x80	; 128
    2dd8:	bf e3       	ldi	r27, 0x3F	; 63
    2dda:	89 8f       	std	Y+25, r24	; 0x19
    2ddc:	9a 8f       	std	Y+26, r25	; 0x1a
    2dde:	ab 8f       	std	Y+27, r26	; 0x1b
    2de0:	bc 8f       	std	Y+28, r27	; 0x1c
 */
void
_delay_ms(double __ms)
{
	uint16_t __ticks;
	double __tmp = ((F_CPU) / 4e3) * __ms;
    2de2:	69 8d       	ldd	r22, Y+25	; 0x19
    2de4:	7a 8d       	ldd	r23, Y+26	; 0x1a
    2de6:	8b 8d       	ldd	r24, Y+27	; 0x1b
    2de8:	9c 8d       	ldd	r25, Y+28	; 0x1c
    2dea:	20 e0       	ldi	r18, 0x00	; 0
    2dec:	30 e0       	ldi	r19, 0x00	; 0
    2dee:	4a e7       	ldi	r20, 0x7A	; 122
    2df0:	55 e4       	ldi	r21, 0x45	; 69
    2df2:	0e 94 1f 02 	call	0x43e	; 0x43e <__mulsf3>
    2df6:	dc 01       	movw	r26, r24
    2df8:	cb 01       	movw	r24, r22
    2dfa:	8d 8b       	std	Y+21, r24	; 0x15
    2dfc:	9e 8b       	std	Y+22, r25	; 0x16
    2dfe:	af 8b       	std	Y+23, r26	; 0x17
    2e00:	b8 8f       	std	Y+24, r27	; 0x18
	if (__tmp < 1.0)
    2e02:	6d 89       	ldd	r22, Y+21	; 0x15
    2e04:	7e 89       	ldd	r23, Y+22	; 0x16
    2e06:	8f 89       	ldd	r24, Y+23	; 0x17
    2e08:	98 8d       	ldd	r25, Y+24	; 0x18
    2e0a:	20 e0       	ldi	r18, 0x00	; 0
    2e0c:	30 e0       	ldi	r19, 0x00	; 0
    2e0e:	40 e8       	ldi	r20, 0x80	; 128
    2e10:	5f e3       	ldi	r21, 0x3F	; 63
    2e12:	0e 94 79 03 	call	0x6f2	; 0x6f2 <__ltsf2>
    2e16:	88 23       	and	r24, r24
    2e18:	2c f4       	brge	.+10     	; 0x2e24 <LCD_enuInit+0x296>
		__ticks = 1;
    2e1a:	81 e0       	ldi	r24, 0x01	; 1
    2e1c:	90 e0       	ldi	r25, 0x00	; 0
    2e1e:	9c 8b       	std	Y+20, r25	; 0x14
    2e20:	8b 8b       	std	Y+19, r24	; 0x13
    2e22:	3f c0       	rjmp	.+126    	; 0x2ea2 <LCD_enuInit+0x314>
	else if (__tmp > 65535)
    2e24:	6d 89       	ldd	r22, Y+21	; 0x15
    2e26:	7e 89       	ldd	r23, Y+22	; 0x16
    2e28:	8f 89       	ldd	r24, Y+23	; 0x17
    2e2a:	98 8d       	ldd	r25, Y+24	; 0x18
    2e2c:	20 e0       	ldi	r18, 0x00	; 0
    2e2e:	3f ef       	ldi	r19, 0xFF	; 255
    2e30:	4f e7       	ldi	r20, 0x7F	; 127
    2e32:	57 e4       	ldi	r21, 0x47	; 71
    2e34:	0e 94 19 03 	call	0x632	; 0x632 <__gtsf2>
    2e38:	18 16       	cp	r1, r24
    2e3a:	4c f5       	brge	.+82     	; 0x2e8e <LCD_enuInit+0x300>
	{
		//	__ticks = requested delay in 1/10 ms
		__ticks = (uint16_t) (__ms * 10.0);
    2e3c:	69 8d       	ldd	r22, Y+25	; 0x19
    2e3e:	7a 8d       	ldd	r23, Y+26	; 0x1a
    2e40:	8b 8d       	ldd	r24, Y+27	; 0x1b
    2e42:	9c 8d       	ldd	r25, Y+28	; 0x1c
    2e44:	20 e0       	ldi	r18, 0x00	; 0
    2e46:	30 e0       	ldi	r19, 0x00	; 0
    2e48:	40 e2       	ldi	r20, 0x20	; 32
    2e4a:	51 e4       	ldi	r21, 0x41	; 65
    2e4c:	0e 94 1f 02 	call	0x43e	; 0x43e <__mulsf3>
    2e50:	dc 01       	movw	r26, r24
    2e52:	cb 01       	movw	r24, r22
    2e54:	bc 01       	movw	r22, r24
    2e56:	cd 01       	movw	r24, r26
    2e58:	0e 94 49 00 	call	0x92	; 0x92 <__fixunssfsi>
    2e5c:	dc 01       	movw	r26, r24
    2e5e:	cb 01       	movw	r24, r22
    2e60:	9c 8b       	std	Y+20, r25	; 0x14
    2e62:	8b 8b       	std	Y+19, r24	; 0x13
    2e64:	0f c0       	rjmp	.+30     	; 0x2e84 <LCD_enuInit+0x2f6>
    2e66:	80 e9       	ldi	r24, 0x90	; 144
    2e68:	91 e0       	ldi	r25, 0x01	; 1
    2e6a:	9a 8b       	std	Y+18, r25	; 0x12
    2e6c:	89 8b       	std	Y+17, r24	; 0x11
    2e6e:	89 89       	ldd	r24, Y+17	; 0x11
    2e70:	9a 89       	ldd	r25, Y+18	; 0x12
    2e72:	01 97       	sbiw	r24, 0x01	; 1
    2e74:	f1 f7       	brne	.-4      	; 0x2e72 <LCD_enuInit+0x2e4>
    2e76:	9a 8b       	std	Y+18, r25	; 0x12
    2e78:	89 8b       	std	Y+17, r24	; 0x11
		while(__ticks)
		{
			// wait 1/10 ms
			_delay_loop_2(((F_CPU) / 4e3) / 10);
			__ticks --;
    2e7a:	8b 89       	ldd	r24, Y+19	; 0x13
    2e7c:	9c 89       	ldd	r25, Y+20	; 0x14
    2e7e:	01 97       	sbiw	r24, 0x01	; 1
    2e80:	9c 8b       	std	Y+20, r25	; 0x14
    2e82:	8b 8b       	std	Y+19, r24	; 0x13
		__ticks = 1;
	else if (__tmp > 65535)
	{
		//	__ticks = requested delay in 1/10 ms
		__ticks = (uint16_t) (__ms * 10.0);
		while(__ticks)
    2e84:	8b 89       	ldd	r24, Y+19	; 0x13
    2e86:	9c 89       	ldd	r25, Y+20	; 0x14
    2e88:	00 97       	sbiw	r24, 0x00	; 0
    2e8a:	69 f7       	brne	.-38     	; 0x2e66 <LCD_enuInit+0x2d8>
    2e8c:	14 c0       	rjmp	.+40     	; 0x2eb6 <LCD_enuInit+0x328>
			__ticks --;
		}
		return;
	}
	else
		__ticks = (uint16_t)__tmp;
    2e8e:	6d 89       	ldd	r22, Y+21	; 0x15
    2e90:	7e 89       	ldd	r23, Y+22	; 0x16
    2e92:	8f 89       	ldd	r24, Y+23	; 0x17
    2e94:	98 8d       	ldd	r25, Y+24	; 0x18
    2e96:	0e 94 49 00 	call	0x92	; 0x92 <__fixunssfsi>
    2e9a:	dc 01       	movw	r26, r24
    2e9c:	cb 01       	movw	r24, r22
    2e9e:	9c 8b       	std	Y+20, r25	; 0x14
    2ea0:	8b 8b       	std	Y+19, r24	; 0x13
    2ea2:	8b 89       	ldd	r24, Y+19	; 0x13
    2ea4:	9c 89       	ldd	r25, Y+20	; 0x14
    2ea6:	98 8b       	std	Y+16, r25	; 0x10
    2ea8:	8f 87       	std	Y+15, r24	; 0x0f
    2eaa:	8f 85       	ldd	r24, Y+15	; 0x0f
    2eac:	98 89       	ldd	r25, Y+16	; 0x10
    2eae:	01 97       	sbiw	r24, 0x01	; 1
    2eb0:	f1 f7       	brne	.-4      	; 0x2eae <LCD_enuInit+0x320>
    2eb2:	98 8b       	std	Y+16, r25	; 0x10
    2eb4:	8f 87       	std	Y+15, r24	; 0x0f

	_delay_ms(1);
	DIO_enuSetPinValue(RS_PORT, RS_PIN , DIO_u8LOW);
    2eb6:	81 e0       	ldi	r24, 0x01	; 1
    2eb8:	61 e0       	ldi	r22, 0x01	; 1
    2eba:	40 e0       	ldi	r20, 0x00	; 0
    2ebc:	0e 94 8a 08 	call	0x1114	; 0x1114 <DIO_enuSetPinValue>
	LCD_enuWriteNLatch(0x01);
    2ec0:	81 e0       	ldi	r24, 0x01	; 1
    2ec2:	0e 94 37 18 	call	0x306e	; 0x306e <LCD_enuWriteNLatch>
    2ec6:	80 e0       	ldi	r24, 0x00	; 0
    2ec8:	90 e0       	ldi	r25, 0x00	; 0
    2eca:	a0 e0       	ldi	r26, 0x00	; 0
    2ecc:	b0 e4       	ldi	r27, 0x40	; 64
    2ece:	8b 87       	std	Y+11, r24	; 0x0b
    2ed0:	9c 87       	std	Y+12, r25	; 0x0c
    2ed2:	ad 87       	std	Y+13, r26	; 0x0d
    2ed4:	be 87       	std	Y+14, r27	; 0x0e
 */
void
_delay_ms(double __ms)
{
	uint16_t __ticks;
	double __tmp = ((F_CPU) / 4e3) * __ms;
    2ed6:	6b 85       	ldd	r22, Y+11	; 0x0b
    2ed8:	7c 85       	ldd	r23, Y+12	; 0x0c
    2eda:	8d 85       	ldd	r24, Y+13	; 0x0d
    2edc:	9e 85       	ldd	r25, Y+14	; 0x0e
    2ede:	20 e0       	ldi	r18, 0x00	; 0
    2ee0:	30 e0       	ldi	r19, 0x00	; 0
    2ee2:	4a e7       	ldi	r20, 0x7A	; 122
    2ee4:	55 e4       	ldi	r21, 0x45	; 69
    2ee6:	0e 94 1f 02 	call	0x43e	; 0x43e <__mulsf3>
    2eea:	dc 01       	movw	r26, r24
    2eec:	cb 01       	movw	r24, r22
    2eee:	8f 83       	std	Y+7, r24	; 0x07
    2ef0:	98 87       	std	Y+8, r25	; 0x08
    2ef2:	a9 87       	std	Y+9, r26	; 0x09
    2ef4:	ba 87       	std	Y+10, r27	; 0x0a
	if (__tmp < 1.0)
    2ef6:	6f 81       	ldd	r22, Y+7	; 0x07
    2ef8:	78 85       	ldd	r23, Y+8	; 0x08
    2efa:	89 85       	ldd	r24, Y+9	; 0x09
    2efc:	9a 85       	ldd	r25, Y+10	; 0x0a
    2efe:	20 e0       	ldi	r18, 0x00	; 0
    2f00:	30 e0       	ldi	r19, 0x00	; 0
    2f02:	40 e8       	ldi	r20, 0x80	; 128
    2f04:	5f e3       	ldi	r21, 0x3F	; 63
    2f06:	0e 94 79 03 	call	0x6f2	; 0x6f2 <__ltsf2>
    2f0a:	88 23       	and	r24, r24
    2f0c:	2c f4       	brge	.+10     	; 0x2f18 <LCD_enuInit+0x38a>
		__ticks = 1;
    2f0e:	81 e0       	ldi	r24, 0x01	; 1
    2f10:	90 e0       	ldi	r25, 0x00	; 0
    2f12:	9e 83       	std	Y+6, r25	; 0x06
    2f14:	8d 83       	std	Y+5, r24	; 0x05
    2f16:	3f c0       	rjmp	.+126    	; 0x2f96 <LCD_enuInit+0x408>
	else if (__tmp > 65535)
    2f18:	6f 81       	ldd	r22, Y+7	; 0x07
    2f1a:	78 85       	ldd	r23, Y+8	; 0x08
    2f1c:	89 85       	ldd	r24, Y+9	; 0x09
    2f1e:	9a 85       	ldd	r25, Y+10	; 0x0a
    2f20:	20 e0       	ldi	r18, 0x00	; 0
    2f22:	3f ef       	ldi	r19, 0xFF	; 255
    2f24:	4f e7       	ldi	r20, 0x7F	; 127
    2f26:	57 e4       	ldi	r21, 0x47	; 71
    2f28:	0e 94 19 03 	call	0x632	; 0x632 <__gtsf2>
    2f2c:	18 16       	cp	r1, r24
    2f2e:	4c f5       	brge	.+82     	; 0x2f82 <LCD_enuInit+0x3f4>
	{
		//	__ticks = requested delay in 1/10 ms
		__ticks = (uint16_t) (__ms * 10.0);
    2f30:	6b 85       	ldd	r22, Y+11	; 0x0b
    2f32:	7c 85       	ldd	r23, Y+12	; 0x0c
    2f34:	8d 85       	ldd	r24, Y+13	; 0x0d
    2f36:	9e 85       	ldd	r25, Y+14	; 0x0e
    2f38:	20 e0       	ldi	r18, 0x00	; 0
    2f3a:	30 e0       	ldi	r19, 0x00	; 0
    2f3c:	40 e2       	ldi	r20, 0x20	; 32
    2f3e:	51 e4       	ldi	r21, 0x41	; 65
    2f40:	0e 94 1f 02 	call	0x43e	; 0x43e <__mulsf3>
    2f44:	dc 01       	movw	r26, r24
    2f46:	cb 01       	movw	r24, r22
    2f48:	bc 01       	movw	r22, r24
    2f4a:	cd 01       	movw	r24, r26
    2f4c:	0e 94 49 00 	call	0x92	; 0x92 <__fixunssfsi>
    2f50:	dc 01       	movw	r26, r24
    2f52:	cb 01       	movw	r24, r22
    2f54:	9e 83       	std	Y+6, r25	; 0x06
    2f56:	8d 83       	std	Y+5, r24	; 0x05
    2f58:	0f c0       	rjmp	.+30     	; 0x2f78 <LCD_enuInit+0x3ea>
    2f5a:	80 e9       	ldi	r24, 0x90	; 144
    2f5c:	91 e0       	ldi	r25, 0x01	; 1
    2f5e:	9c 83       	std	Y+4, r25	; 0x04
    2f60:	8b 83       	std	Y+3, r24	; 0x03
    2f62:	8b 81       	ldd	r24, Y+3	; 0x03
    2f64:	9c 81       	ldd	r25, Y+4	; 0x04
    2f66:	01 97       	sbiw	r24, 0x01	; 1
    2f68:	f1 f7       	brne	.-4      	; 0x2f66 <LCD_enuInit+0x3d8>
    2f6a:	9c 83       	std	Y+4, r25	; 0x04
    2f6c:	8b 83       	std	Y+3, r24	; 0x03
		while(__ticks)
		{
			// wait 1/10 ms
			_delay_loop_2(((F_CPU) / 4e3) / 10);
			__ticks --;
    2f6e:	8d 81       	ldd	r24, Y+5	; 0x05
    2f70:	9e 81       	ldd	r25, Y+6	; 0x06
    2f72:	01 97       	sbiw	r24, 0x01	; 1
    2f74:	9e 83       	std	Y+6, r25	; 0x06
    2f76:	8d 83       	std	Y+5, r24	; 0x05
		__ticks = 1;
	else if (__tmp > 65535)
	{
		//	__ticks = requested delay in 1/10 ms
		__ticks = (uint16_t) (__ms * 10.0);
		while(__ticks)
    2f78:	8d 81       	ldd	r24, Y+5	; 0x05
    2f7a:	9e 81       	ldd	r25, Y+6	; 0x06
    2f7c:	00 97       	sbiw	r24, 0x00	; 0
    2f7e:	69 f7       	brne	.-38     	; 0x2f5a <LCD_enuInit+0x3cc>
    2f80:	14 c0       	rjmp	.+40     	; 0x2faa <LCD_enuInit+0x41c>
			__ticks --;
		}
		return;
	}
	else
		__ticks = (uint16_t)__tmp;
    2f82:	6f 81       	ldd	r22, Y+7	; 0x07
    2f84:	78 85       	ldd	r23, Y+8	; 0x08
    2f86:	89 85       	ldd	r24, Y+9	; 0x09
    2f88:	9a 85       	ldd	r25, Y+10	; 0x0a
    2f8a:	0e 94 49 00 	call	0x92	; 0x92 <__fixunssfsi>
    2f8e:	dc 01       	movw	r26, r24
    2f90:	cb 01       	movw	r24, r22
    2f92:	9e 83       	std	Y+6, r25	; 0x06
    2f94:	8d 83       	std	Y+5, r24	; 0x05
    2f96:	8d 81       	ldd	r24, Y+5	; 0x05
    2f98:	9e 81       	ldd	r25, Y+6	; 0x06
    2f9a:	9a 83       	std	Y+2, r25	; 0x02
    2f9c:	89 83       	std	Y+1, r24	; 0x01
    2f9e:	89 81       	ldd	r24, Y+1	; 0x01
    2fa0:	9a 81       	ldd	r25, Y+2	; 0x02
    2fa2:	01 97       	sbiw	r24, 0x01	; 1
    2fa4:	f1 f7       	brne	.-4      	; 0x2fa2 <LCD_enuInit+0x414>
    2fa6:	9a 83       	std	Y+2, r25	; 0x02
    2fa8:	89 83       	std	Y+1, r24	; 0x01

	_delay_ms(2);
	DIO_enuSetPinValue(RS_PORT, RS_PIN , DIO_u8LOW);
    2faa:	81 e0       	ldi	r24, 0x01	; 1
    2fac:	61 e0       	ldi	r22, 0x01	; 1
    2fae:	40 e0       	ldi	r20, 0x00	; 0
    2fb0:	0e 94 8a 08 	call	0x1114	; 0x1114 <DIO_enuSetPinValue>
	LCD_enuWriteNLatch(0x06);
    2fb4:	86 e0       	ldi	r24, 0x06	; 6
    2fb6:	0e 94 37 18 	call	0x306e	; 0x306e <LCD_enuWriteNLatch>

	return Local_u8ErrorState;
    2fba:	89 ad       	ldd	r24, Y+57	; 0x39
}
    2fbc:	e9 96       	adiw	r28, 0x39	; 57
    2fbe:	0f b6       	in	r0, 0x3f	; 63
    2fc0:	f8 94       	cli
    2fc2:	de bf       	out	0x3e, r29	; 62
    2fc4:	0f be       	out	0x3f, r0	; 63
    2fc6:	cd bf       	out	0x3d, r28	; 61
    2fc8:	cf 91       	pop	r28
    2fca:	df 91       	pop	r29
    2fcc:	08 95       	ret

00002fce <LCD_enuSendData>:

ES_t LCD_enuSendData(u8 Copy_u8Data)
{
    2fce:	df 93       	push	r29
    2fd0:	cf 93       	push	r28
    2fd2:	00 d0       	rcall	.+0      	; 0x2fd4 <LCD_enuSendData+0x6>
    2fd4:	cd b7       	in	r28, 0x3d	; 61
    2fd6:	de b7       	in	r29, 0x3e	; 62
    2fd8:	8a 83       	std	Y+2, r24	; 0x02
	ES_t Local_u8ErrorState = ES_NOK;
    2fda:	19 82       	std	Y+1, r1	; 0x01

	DIO_enuSetPinValue(RS_PORT, RS_PIN , DIO_u8HIGH);
    2fdc:	81 e0       	ldi	r24, 0x01	; 1
    2fde:	61 e0       	ldi	r22, 0x01	; 1
    2fe0:	41 e0       	ldi	r20, 0x01	; 1
    2fe2:	0e 94 8a 08 	call	0x1114	; 0x1114 <DIO_enuSetPinValue>
	LCD_enuWriteNLatch(Copy_u8Data);
    2fe6:	8a 81       	ldd	r24, Y+2	; 0x02
    2fe8:	0e 94 37 18 	call	0x306e	; 0x306e <LCD_enuWriteNLatch>


	return Local_u8ErrorState;
    2fec:	89 81       	ldd	r24, Y+1	; 0x01
}
    2fee:	0f 90       	pop	r0
    2ff0:	0f 90       	pop	r0
    2ff2:	cf 91       	pop	r28
    2ff4:	df 91       	pop	r29
    2ff6:	08 95       	ret

00002ff8 <LCD_enuSendCommand>:

ES_t LCD_enuSendCommand(u8 Copy_u8Command)
{
    2ff8:	df 93       	push	r29
    2ffa:	cf 93       	push	r28
    2ffc:	00 d0       	rcall	.+0      	; 0x2ffe <LCD_enuSendCommand+0x6>
    2ffe:	cd b7       	in	r28, 0x3d	; 61
    3000:	de b7       	in	r29, 0x3e	; 62
    3002:	8a 83       	std	Y+2, r24	; 0x02
	ES_t Local_u8ErrorState = ES_NOK;
    3004:	19 82       	std	Y+1, r1	; 0x01

	DIO_enuSetPinValue(RS_PORT, RS_PIN , DIO_u8LOW);
    3006:	81 e0       	ldi	r24, 0x01	; 1
    3008:	61 e0       	ldi	r22, 0x01	; 1
    300a:	40 e0       	ldi	r20, 0x00	; 0
    300c:	0e 94 8a 08 	call	0x1114	; 0x1114 <DIO_enuSetPinValue>
	LCD_enuWriteNLatch(Copy_u8Command);
    3010:	8a 81       	ldd	r24, Y+2	; 0x02
    3012:	0e 94 37 18 	call	0x306e	; 0x306e <LCD_enuWriteNLatch>

	return Local_u8ErrorState;
    3016:	89 81       	ldd	r24, Y+1	; 0x01
}
    3018:	0f 90       	pop	r0
    301a:	0f 90       	pop	r0
    301c:	cf 91       	pop	r28
    301e:	df 91       	pop	r29
    3020:	08 95       	ret

00003022 <LCD_enuSendString>:


ES_t LCD_enuSendString(const char * Copy_pcString)
{
    3022:	df 93       	push	r29
    3024:	cf 93       	push	r28
    3026:	00 d0       	rcall	.+0      	; 0x3028 <LCD_enuSendString+0x6>
    3028:	0f 92       	push	r0
    302a:	cd b7       	in	r28, 0x3d	; 61
    302c:	de b7       	in	r29, 0x3e	; 62
    302e:	9b 83       	std	Y+3, r25	; 0x03
    3030:	8a 83       	std	Y+2, r24	; 0x02
	ES_t Local_u8ErrorState = ES_NOK;
    3032:	19 82       	std	Y+1, r1	; 0x01
    3034:	10 c0       	rjmp	.+32     	; 0x3056 <LCD_enuSendString+0x34>

	while (*Copy_pcString)//'\0' ,'0'
	{
		DIO_enuSetPinValue(RS_PORT, RS_PIN , DIO_u8HIGH);
    3036:	81 e0       	ldi	r24, 0x01	; 1
    3038:	61 e0       	ldi	r22, 0x01	; 1
    303a:	41 e0       	ldi	r20, 0x01	; 1
    303c:	0e 94 8a 08 	call	0x1114	; 0x1114 <DIO_enuSetPinValue>
		LCD_enuWriteNLatch(*Copy_pcString++);
    3040:	ea 81       	ldd	r30, Y+2	; 0x02
    3042:	fb 81       	ldd	r31, Y+3	; 0x03
    3044:	20 81       	ld	r18, Z
    3046:	8a 81       	ldd	r24, Y+2	; 0x02
    3048:	9b 81       	ldd	r25, Y+3	; 0x03
    304a:	01 96       	adiw	r24, 0x01	; 1
    304c:	9b 83       	std	Y+3, r25	; 0x03
    304e:	8a 83       	std	Y+2, r24	; 0x02
    3050:	82 2f       	mov	r24, r18
    3052:	0e 94 37 18 	call	0x306e	; 0x306e <LCD_enuWriteNLatch>

ES_t LCD_enuSendString(const char * Copy_pcString)
{
	ES_t Local_u8ErrorState = ES_NOK;

	while (*Copy_pcString)//'\0' ,'0'
    3056:	ea 81       	ldd	r30, Y+2	; 0x02
    3058:	fb 81       	ldd	r31, Y+3	; 0x03
    305a:	80 81       	ld	r24, Z
    305c:	88 23       	and	r24, r24
    305e:	59 f7       	brne	.-42     	; 0x3036 <LCD_enuSendString+0x14>
	{
		DIO_enuSetPinValue(RS_PORT, RS_PIN , DIO_u8HIGH);
		LCD_enuWriteNLatch(*Copy_pcString++);
	}

	return Local_u8ErrorState;
    3060:	89 81       	ldd	r24, Y+1	; 0x01
}
    3062:	0f 90       	pop	r0
    3064:	0f 90       	pop	r0
    3066:	0f 90       	pop	r0
    3068:	cf 91       	pop	r28
    306a:	df 91       	pop	r29
    306c:	08 95       	ret

0000306e <LCD_enuWriteNLatch>:


static ES_t LCD_enuWriteNLatch(u8 Copy_u8Data)
{
    306e:	0f 93       	push	r16
    3070:	1f 93       	push	r17
    3072:	df 93       	push	r29
    3074:	cf 93       	push	r28
    3076:	cd b7       	in	r28, 0x3d	; 61
    3078:	de b7       	in	r29, 0x3e	; 62
    307a:	c6 55       	subi	r28, 0x56	; 86
    307c:	d0 40       	sbci	r29, 0x00	; 0
    307e:	0f b6       	in	r0, 0x3f	; 63
    3080:	f8 94       	cli
    3082:	de bf       	out	0x3e, r29	; 62
    3084:	0f be       	out	0x3f, r0	; 63
    3086:	cd bf       	out	0x3d, r28	; 61
    3088:	fe 01       	movw	r30, r28
    308a:	ea 5a       	subi	r30, 0xAA	; 170
    308c:	ff 4f       	sbci	r31, 0xFF	; 255
    308e:	80 83       	st	Z, r24
	ES_t Local_u8ErrorState = ES_NOK;
    3090:	fe 01       	movw	r30, r28
    3092:	eb 5a       	subi	r30, 0xAB	; 171
    3094:	ff 4f       	sbci	r31, 0xFF	; 255
    3096:	10 82       	st	Z, r1

	DIO_enuSetPinValue(EN_PORT, EN_PIN, DIO_u8LOW);
    3098:	80 e0       	ldi	r24, 0x00	; 0
    309a:	61 e0       	ldi	r22, 0x01	; 1
    309c:	40 e0       	ldi	r20, 0x00	; 0
    309e:	0e 94 8a 08 	call	0x1114	; 0x1114 <DIO_enuSetPinValue>
	DIO_enuSetPinValue(RW_PORT , RW_PIN , DIO_u8LOW);
    30a2:	81 e0       	ldi	r24, 0x01	; 1
    30a4:	62 e0       	ldi	r22, 0x02	; 2
    30a6:	40 e0       	ldi	r20, 0x00	; 0
    30a8:	0e 94 8a 08 	call	0x1114	; 0x1114 <DIO_enuSetPinValue>

	if (Copy_u8Data == 0x28)//'('
    30ac:	fe 01       	movw	r30, r28
    30ae:	ea 5a       	subi	r30, 0xAA	; 170
    30b0:	ff 4f       	sbci	r31, 0xFF	; 255
    30b2:	80 81       	ld	r24, Z
    30b4:	88 32       	cpi	r24, 0x28	; 40
    30b6:	09 f0       	breq	.+2      	; 0x30ba <LCD_enuWriteNLatch+0x4c>
    30b8:	79 c1       	rjmp	.+754    	; 0x33ac <LCD_enuWriteNLatch+0x33e>
		//u8 Local_u8RS_Val;
		//DIO_enuGetPinValue(RS_PORT, RS_PIN, &Local_u8RS_Val);

		//if (Local_u8RS_Val == DIO_u8LOW)
		{
			DIO_enuSetPinValue(D7_PORT, D7_PIN , ((Copy_u8Data>>7)&1));
    30ba:	fe 01       	movw	r30, r28
    30bc:	ea 5a       	subi	r30, 0xAA	; 170
    30be:	ff 4f       	sbci	r31, 0xFF	; 255
    30c0:	80 81       	ld	r24, Z
    30c2:	98 2f       	mov	r25, r24
    30c4:	99 1f       	adc	r25, r25
    30c6:	99 27       	eor	r25, r25
    30c8:	99 1f       	adc	r25, r25
    30ca:	80 e0       	ldi	r24, 0x00	; 0
    30cc:	67 e0       	ldi	r22, 0x07	; 7
    30ce:	49 2f       	mov	r20, r25
    30d0:	0e 94 8a 08 	call	0x1114	; 0x1114 <DIO_enuSetPinValue>
			DIO_enuSetPinValue(D6_PORT, D6_PIN , ((Copy_u8Data>>6)&1));
    30d4:	fe 01       	movw	r30, r28
    30d6:	ea 5a       	subi	r30, 0xAA	; 170
    30d8:	ff 4f       	sbci	r31, 0xFF	; 255
    30da:	80 81       	ld	r24, Z
    30dc:	82 95       	swap	r24
    30de:	86 95       	lsr	r24
    30e0:	86 95       	lsr	r24
    30e2:	83 70       	andi	r24, 0x03	; 3
    30e4:	98 2f       	mov	r25, r24
    30e6:	91 70       	andi	r25, 0x01	; 1
    30e8:	80 e0       	ldi	r24, 0x00	; 0
    30ea:	66 e0       	ldi	r22, 0x06	; 6
    30ec:	49 2f       	mov	r20, r25
    30ee:	0e 94 8a 08 	call	0x1114	; 0x1114 <DIO_enuSetPinValue>
			DIO_enuSetPinValue(D5_PORT, D5_PIN , ((Copy_u8Data>>5)&1));
    30f2:	fe 01       	movw	r30, r28
    30f4:	ea 5a       	subi	r30, 0xAA	; 170
    30f6:	ff 4f       	sbci	r31, 0xFF	; 255
    30f8:	80 81       	ld	r24, Z
    30fa:	82 95       	swap	r24
    30fc:	86 95       	lsr	r24
    30fe:	87 70       	andi	r24, 0x07	; 7
    3100:	98 2f       	mov	r25, r24
    3102:	91 70       	andi	r25, 0x01	; 1
    3104:	80 e0       	ldi	r24, 0x00	; 0
    3106:	65 e0       	ldi	r22, 0x05	; 5
    3108:	49 2f       	mov	r20, r25
    310a:	0e 94 8a 08 	call	0x1114	; 0x1114 <DIO_enuSetPinValue>
			DIO_enuSetPinValue(D4_PORT, D4_PIN , ((Copy_u8Data>>4)&1));
    310e:	fe 01       	movw	r30, r28
    3110:	ea 5a       	subi	r30, 0xAA	; 170
    3112:	ff 4f       	sbci	r31, 0xFF	; 255
    3114:	80 81       	ld	r24, Z
    3116:	82 95       	swap	r24
    3118:	8f 70       	andi	r24, 0x0F	; 15
    311a:	98 2f       	mov	r25, r24
    311c:	91 70       	andi	r25, 0x01	; 1
    311e:	80 e0       	ldi	r24, 0x00	; 0
    3120:	64 e0       	ldi	r22, 0x04	; 4
    3122:	49 2f       	mov	r20, r25
    3124:	0e 94 8a 08 	call	0x1114	; 0x1114 <DIO_enuSetPinValue>

			DIO_enuSetPinValue(EN_PORT, EN_PIN , DIO_u8HIGH);
    3128:	80 e0       	ldi	r24, 0x00	; 0
    312a:	61 e0       	ldi	r22, 0x01	; 1
    312c:	41 e0       	ldi	r20, 0x01	; 1
    312e:	0e 94 8a 08 	call	0x1114	; 0x1114 <DIO_enuSetPinValue>
    3132:	fe 01       	movw	r30, r28
    3134:	ef 5a       	subi	r30, 0xAF	; 175
    3136:	ff 4f       	sbci	r31, 0xFF	; 255
    3138:	80 e0       	ldi	r24, 0x00	; 0
    313a:	90 e0       	ldi	r25, 0x00	; 0
    313c:	a0 ea       	ldi	r26, 0xA0	; 160
    313e:	b0 e4       	ldi	r27, 0x40	; 64
    3140:	80 83       	st	Z, r24
    3142:	91 83       	std	Z+1, r25	; 0x01
    3144:	a2 83       	std	Z+2, r26	; 0x02
    3146:	b3 83       	std	Z+3, r27	; 0x03
 */
void
_delay_ms(double __ms)
{
	uint16_t __ticks;
	double __tmp = ((F_CPU) / 4e3) * __ms;
    3148:	8e 01       	movw	r16, r28
    314a:	03 5b       	subi	r16, 0xB3	; 179
    314c:	1f 4f       	sbci	r17, 0xFF	; 255
    314e:	fe 01       	movw	r30, r28
    3150:	ef 5a       	subi	r30, 0xAF	; 175
    3152:	ff 4f       	sbci	r31, 0xFF	; 255
    3154:	60 81       	ld	r22, Z
    3156:	71 81       	ldd	r23, Z+1	; 0x01
    3158:	82 81       	ldd	r24, Z+2	; 0x02
    315a:	93 81       	ldd	r25, Z+3	; 0x03
    315c:	20 e0       	ldi	r18, 0x00	; 0
    315e:	30 e0       	ldi	r19, 0x00	; 0
    3160:	4a e7       	ldi	r20, 0x7A	; 122
    3162:	55 e4       	ldi	r21, 0x45	; 69
    3164:	0e 94 1f 02 	call	0x43e	; 0x43e <__mulsf3>
    3168:	dc 01       	movw	r26, r24
    316a:	cb 01       	movw	r24, r22
    316c:	f8 01       	movw	r30, r16
    316e:	80 83       	st	Z, r24
    3170:	91 83       	std	Z+1, r25	; 0x01
    3172:	a2 83       	std	Z+2, r26	; 0x02
    3174:	b3 83       	std	Z+3, r27	; 0x03
	if (__tmp < 1.0)
    3176:	fe 01       	movw	r30, r28
    3178:	e3 5b       	subi	r30, 0xB3	; 179
    317a:	ff 4f       	sbci	r31, 0xFF	; 255
    317c:	60 81       	ld	r22, Z
    317e:	71 81       	ldd	r23, Z+1	; 0x01
    3180:	82 81       	ldd	r24, Z+2	; 0x02
    3182:	93 81       	ldd	r25, Z+3	; 0x03
    3184:	20 e0       	ldi	r18, 0x00	; 0
    3186:	30 e0       	ldi	r19, 0x00	; 0
    3188:	40 e8       	ldi	r20, 0x80	; 128
    318a:	5f e3       	ldi	r21, 0x3F	; 63
    318c:	0e 94 79 03 	call	0x6f2	; 0x6f2 <__ltsf2>
    3190:	88 23       	and	r24, r24
    3192:	44 f4       	brge	.+16     	; 0x31a4 <LCD_enuWriteNLatch+0x136>
		__ticks = 1;
    3194:	fe 01       	movw	r30, r28
    3196:	e5 5b       	subi	r30, 0xB5	; 181
    3198:	ff 4f       	sbci	r31, 0xFF	; 255
    319a:	81 e0       	ldi	r24, 0x01	; 1
    319c:	90 e0       	ldi	r25, 0x00	; 0
    319e:	91 83       	std	Z+1, r25	; 0x01
    31a0:	80 83       	st	Z, r24
    31a2:	64 c0       	rjmp	.+200    	; 0x326c <LCD_enuWriteNLatch+0x1fe>
	else if (__tmp > 65535)
    31a4:	fe 01       	movw	r30, r28
    31a6:	e3 5b       	subi	r30, 0xB3	; 179
    31a8:	ff 4f       	sbci	r31, 0xFF	; 255
    31aa:	60 81       	ld	r22, Z
    31ac:	71 81       	ldd	r23, Z+1	; 0x01
    31ae:	82 81       	ldd	r24, Z+2	; 0x02
    31b0:	93 81       	ldd	r25, Z+3	; 0x03
    31b2:	20 e0       	ldi	r18, 0x00	; 0
    31b4:	3f ef       	ldi	r19, 0xFF	; 255
    31b6:	4f e7       	ldi	r20, 0x7F	; 127
    31b8:	57 e4       	ldi	r21, 0x47	; 71
    31ba:	0e 94 19 03 	call	0x632	; 0x632 <__gtsf2>
    31be:	18 16       	cp	r1, r24
    31c0:	0c f0       	brlt	.+2      	; 0x31c4 <LCD_enuWriteNLatch+0x156>
    31c2:	43 c0       	rjmp	.+134    	; 0x324a <LCD_enuWriteNLatch+0x1dc>
	{
		//	__ticks = requested delay in 1/10 ms
		__ticks = (uint16_t) (__ms * 10.0);
    31c4:	fe 01       	movw	r30, r28
    31c6:	ef 5a       	subi	r30, 0xAF	; 175
    31c8:	ff 4f       	sbci	r31, 0xFF	; 255
    31ca:	60 81       	ld	r22, Z
    31cc:	71 81       	ldd	r23, Z+1	; 0x01
    31ce:	82 81       	ldd	r24, Z+2	; 0x02
    31d0:	93 81       	ldd	r25, Z+3	; 0x03
    31d2:	20 e0       	ldi	r18, 0x00	; 0
    31d4:	30 e0       	ldi	r19, 0x00	; 0
    31d6:	40 e2       	ldi	r20, 0x20	; 32
    31d8:	51 e4       	ldi	r21, 0x41	; 65
    31da:	0e 94 1f 02 	call	0x43e	; 0x43e <__mulsf3>
    31de:	dc 01       	movw	r26, r24
    31e0:	cb 01       	movw	r24, r22
    31e2:	8e 01       	movw	r16, r28
    31e4:	05 5b       	subi	r16, 0xB5	; 181
    31e6:	1f 4f       	sbci	r17, 0xFF	; 255
    31e8:	bc 01       	movw	r22, r24
    31ea:	cd 01       	movw	r24, r26
    31ec:	0e 94 49 00 	call	0x92	; 0x92 <__fixunssfsi>
    31f0:	dc 01       	movw	r26, r24
    31f2:	cb 01       	movw	r24, r22
    31f4:	f8 01       	movw	r30, r16
    31f6:	91 83       	std	Z+1, r25	; 0x01
    31f8:	80 83       	st	Z, r24
    31fa:	1f c0       	rjmp	.+62     	; 0x323a <LCD_enuWriteNLatch+0x1cc>
    31fc:	fe 01       	movw	r30, r28
    31fe:	e7 5b       	subi	r30, 0xB7	; 183
    3200:	ff 4f       	sbci	r31, 0xFF	; 255
    3202:	80 e9       	ldi	r24, 0x90	; 144
    3204:	91 e0       	ldi	r25, 0x01	; 1
    3206:	91 83       	std	Z+1, r25	; 0x01
    3208:	80 83       	st	Z, r24
    320a:	fe 01       	movw	r30, r28
    320c:	e7 5b       	subi	r30, 0xB7	; 183
    320e:	ff 4f       	sbci	r31, 0xFF	; 255
    3210:	80 81       	ld	r24, Z
    3212:	91 81       	ldd	r25, Z+1	; 0x01
    3214:	01 97       	sbiw	r24, 0x01	; 1
    3216:	f1 f7       	brne	.-4      	; 0x3214 <LCD_enuWriteNLatch+0x1a6>
    3218:	fe 01       	movw	r30, r28
    321a:	e7 5b       	subi	r30, 0xB7	; 183
    321c:	ff 4f       	sbci	r31, 0xFF	; 255
    321e:	91 83       	std	Z+1, r25	; 0x01
    3220:	80 83       	st	Z, r24
		while(__ticks)
		{
			// wait 1/10 ms
			_delay_loop_2(((F_CPU) / 4e3) / 10);
			__ticks --;
    3222:	de 01       	movw	r26, r28
    3224:	a5 5b       	subi	r26, 0xB5	; 181
    3226:	bf 4f       	sbci	r27, 0xFF	; 255
    3228:	fe 01       	movw	r30, r28
    322a:	e5 5b       	subi	r30, 0xB5	; 181
    322c:	ff 4f       	sbci	r31, 0xFF	; 255
    322e:	80 81       	ld	r24, Z
    3230:	91 81       	ldd	r25, Z+1	; 0x01
    3232:	01 97       	sbiw	r24, 0x01	; 1
    3234:	11 96       	adiw	r26, 0x01	; 1
    3236:	9c 93       	st	X, r25
    3238:	8e 93       	st	-X, r24
		__ticks = 1;
	else if (__tmp > 65535)
	{
		//	__ticks = requested delay in 1/10 ms
		__ticks = (uint16_t) (__ms * 10.0);
		while(__ticks)
    323a:	fe 01       	movw	r30, r28
    323c:	e5 5b       	subi	r30, 0xB5	; 181
    323e:	ff 4f       	sbci	r31, 0xFF	; 255
    3240:	80 81       	ld	r24, Z
    3242:	91 81       	ldd	r25, Z+1	; 0x01
    3244:	00 97       	sbiw	r24, 0x00	; 0
    3246:	d1 f6       	brne	.-76     	; 0x31fc <LCD_enuWriteNLatch+0x18e>
    3248:	27 c0       	rjmp	.+78     	; 0x3298 <LCD_enuWriteNLatch+0x22a>
			__ticks --;
		}
		return;
	}
	else
		__ticks = (uint16_t)__tmp;
    324a:	8e 01       	movw	r16, r28
    324c:	05 5b       	subi	r16, 0xB5	; 181
    324e:	1f 4f       	sbci	r17, 0xFF	; 255
    3250:	fe 01       	movw	r30, r28
    3252:	e3 5b       	subi	r30, 0xB3	; 179
    3254:	ff 4f       	sbci	r31, 0xFF	; 255
    3256:	60 81       	ld	r22, Z
    3258:	71 81       	ldd	r23, Z+1	; 0x01
    325a:	82 81       	ldd	r24, Z+2	; 0x02
    325c:	93 81       	ldd	r25, Z+3	; 0x03
    325e:	0e 94 49 00 	call	0x92	; 0x92 <__fixunssfsi>
    3262:	dc 01       	movw	r26, r24
    3264:	cb 01       	movw	r24, r22
    3266:	f8 01       	movw	r30, r16
    3268:	91 83       	std	Z+1, r25	; 0x01
    326a:	80 83       	st	Z, r24
    326c:	de 01       	movw	r26, r28
    326e:	a9 5b       	subi	r26, 0xB9	; 185
    3270:	bf 4f       	sbci	r27, 0xFF	; 255
    3272:	fe 01       	movw	r30, r28
    3274:	e5 5b       	subi	r30, 0xB5	; 181
    3276:	ff 4f       	sbci	r31, 0xFF	; 255
    3278:	80 81       	ld	r24, Z
    327a:	91 81       	ldd	r25, Z+1	; 0x01
    327c:	8d 93       	st	X+, r24
    327e:	9c 93       	st	X, r25
    3280:	fe 01       	movw	r30, r28
    3282:	e9 5b       	subi	r30, 0xB9	; 185
    3284:	ff 4f       	sbci	r31, 0xFF	; 255
    3286:	80 81       	ld	r24, Z
    3288:	91 81       	ldd	r25, Z+1	; 0x01
    328a:	01 97       	sbiw	r24, 0x01	; 1
    328c:	f1 f7       	brne	.-4      	; 0x328a <LCD_enuWriteNLatch+0x21c>
    328e:	fe 01       	movw	r30, r28
    3290:	e9 5b       	subi	r30, 0xB9	; 185
    3292:	ff 4f       	sbci	r31, 0xFF	; 255
    3294:	91 83       	std	Z+1, r25	; 0x01
    3296:	80 83       	st	Z, r24
			_delay_ms(5);
			DIO_enuSetPinValue(EN_PORT, EN_PIN, DIO_u8LOW);
    3298:	80 e0       	ldi	r24, 0x00	; 0
    329a:	61 e0       	ldi	r22, 0x01	; 1
    329c:	40 e0       	ldi	r20, 0x00	; 0
    329e:	0e 94 8a 08 	call	0x1114	; 0x1114 <DIO_enuSetPinValue>
    32a2:	fe 01       	movw	r30, r28
    32a4:	ed 5b       	subi	r30, 0xBD	; 189
    32a6:	ff 4f       	sbci	r31, 0xFF	; 255
    32a8:	80 e0       	ldi	r24, 0x00	; 0
    32aa:	90 e0       	ldi	r25, 0x00	; 0
    32ac:	a0 ea       	ldi	r26, 0xA0	; 160
    32ae:	b0 e4       	ldi	r27, 0x40	; 64
    32b0:	80 83       	st	Z, r24
    32b2:	91 83       	std	Z+1, r25	; 0x01
    32b4:	a2 83       	std	Z+2, r26	; 0x02
    32b6:	b3 83       	std	Z+3, r27	; 0x03
 */
void
_delay_ms(double __ms)
{
	uint16_t __ticks;
	double __tmp = ((F_CPU) / 4e3) * __ms;
    32b8:	8e 01       	movw	r16, r28
    32ba:	01 5c       	subi	r16, 0xC1	; 193
    32bc:	1f 4f       	sbci	r17, 0xFF	; 255
    32be:	fe 01       	movw	r30, r28
    32c0:	ed 5b       	subi	r30, 0xBD	; 189
    32c2:	ff 4f       	sbci	r31, 0xFF	; 255
    32c4:	60 81       	ld	r22, Z
    32c6:	71 81       	ldd	r23, Z+1	; 0x01
    32c8:	82 81       	ldd	r24, Z+2	; 0x02
    32ca:	93 81       	ldd	r25, Z+3	; 0x03
    32cc:	20 e0       	ldi	r18, 0x00	; 0
    32ce:	30 e0       	ldi	r19, 0x00	; 0
    32d0:	4a e7       	ldi	r20, 0x7A	; 122
    32d2:	55 e4       	ldi	r21, 0x45	; 69
    32d4:	0e 94 1f 02 	call	0x43e	; 0x43e <__mulsf3>
    32d8:	dc 01       	movw	r26, r24
    32da:	cb 01       	movw	r24, r22
    32dc:	f8 01       	movw	r30, r16
    32de:	80 83       	st	Z, r24
    32e0:	91 83       	std	Z+1, r25	; 0x01
    32e2:	a2 83       	std	Z+2, r26	; 0x02
    32e4:	b3 83       	std	Z+3, r27	; 0x03
	if (__tmp < 1.0)
    32e6:	fe 01       	movw	r30, r28
    32e8:	ff 96       	adiw	r30, 0x3f	; 63
    32ea:	60 81       	ld	r22, Z
    32ec:	71 81       	ldd	r23, Z+1	; 0x01
    32ee:	82 81       	ldd	r24, Z+2	; 0x02
    32f0:	93 81       	ldd	r25, Z+3	; 0x03
    32f2:	20 e0       	ldi	r18, 0x00	; 0
    32f4:	30 e0       	ldi	r19, 0x00	; 0
    32f6:	40 e8       	ldi	r20, 0x80	; 128
    32f8:	5f e3       	ldi	r21, 0x3F	; 63
    32fa:	0e 94 79 03 	call	0x6f2	; 0x6f2 <__ltsf2>
    32fe:	88 23       	and	r24, r24
    3300:	2c f4       	brge	.+10     	; 0x330c <LCD_enuWriteNLatch+0x29e>
		__ticks = 1;
    3302:	81 e0       	ldi	r24, 0x01	; 1
    3304:	90 e0       	ldi	r25, 0x00	; 0
    3306:	9e af       	std	Y+62, r25	; 0x3e
    3308:	8d af       	std	Y+61, r24	; 0x3d
    330a:	46 c0       	rjmp	.+140    	; 0x3398 <LCD_enuWriteNLatch+0x32a>
	else if (__tmp > 65535)
    330c:	fe 01       	movw	r30, r28
    330e:	ff 96       	adiw	r30, 0x3f	; 63
    3310:	60 81       	ld	r22, Z
    3312:	71 81       	ldd	r23, Z+1	; 0x01
    3314:	82 81       	ldd	r24, Z+2	; 0x02
    3316:	93 81       	ldd	r25, Z+3	; 0x03
    3318:	20 e0       	ldi	r18, 0x00	; 0
    331a:	3f ef       	ldi	r19, 0xFF	; 255
    331c:	4f e7       	ldi	r20, 0x7F	; 127
    331e:	57 e4       	ldi	r21, 0x47	; 71
    3320:	0e 94 19 03 	call	0x632	; 0x632 <__gtsf2>
    3324:	18 16       	cp	r1, r24
    3326:	64 f5       	brge	.+88     	; 0x3380 <LCD_enuWriteNLatch+0x312>
	{
		//	__ticks = requested delay in 1/10 ms
		__ticks = (uint16_t) (__ms * 10.0);
    3328:	fe 01       	movw	r30, r28
    332a:	ed 5b       	subi	r30, 0xBD	; 189
    332c:	ff 4f       	sbci	r31, 0xFF	; 255
    332e:	60 81       	ld	r22, Z
    3330:	71 81       	ldd	r23, Z+1	; 0x01
    3332:	82 81       	ldd	r24, Z+2	; 0x02
    3334:	93 81       	ldd	r25, Z+3	; 0x03
    3336:	20 e0       	ldi	r18, 0x00	; 0
    3338:	30 e0       	ldi	r19, 0x00	; 0
    333a:	40 e2       	ldi	r20, 0x20	; 32
    333c:	51 e4       	ldi	r21, 0x41	; 65
    333e:	0e 94 1f 02 	call	0x43e	; 0x43e <__mulsf3>
    3342:	dc 01       	movw	r26, r24
    3344:	cb 01       	movw	r24, r22
    3346:	bc 01       	movw	r22, r24
    3348:	cd 01       	movw	r24, r26
    334a:	0e 94 49 00 	call	0x92	; 0x92 <__fixunssfsi>
    334e:	dc 01       	movw	r26, r24
    3350:	cb 01       	movw	r24, r22
    3352:	9e af       	std	Y+62, r25	; 0x3e
    3354:	8d af       	std	Y+61, r24	; 0x3d
    3356:	0f c0       	rjmp	.+30     	; 0x3376 <LCD_enuWriteNLatch+0x308>
    3358:	80 e9       	ldi	r24, 0x90	; 144
    335a:	91 e0       	ldi	r25, 0x01	; 1
    335c:	9c af       	std	Y+60, r25	; 0x3c
    335e:	8b af       	std	Y+59, r24	; 0x3b
    3360:	8b ad       	ldd	r24, Y+59	; 0x3b
    3362:	9c ad       	ldd	r25, Y+60	; 0x3c
    3364:	01 97       	sbiw	r24, 0x01	; 1
    3366:	f1 f7       	brne	.-4      	; 0x3364 <LCD_enuWriteNLatch+0x2f6>
    3368:	9c af       	std	Y+60, r25	; 0x3c
    336a:	8b af       	std	Y+59, r24	; 0x3b
		while(__ticks)
		{
			// wait 1/10 ms
			_delay_loop_2(((F_CPU) / 4e3) / 10);
			__ticks --;
    336c:	8d ad       	ldd	r24, Y+61	; 0x3d
    336e:	9e ad       	ldd	r25, Y+62	; 0x3e
    3370:	01 97       	sbiw	r24, 0x01	; 1
    3372:	9e af       	std	Y+62, r25	; 0x3e
    3374:	8d af       	std	Y+61, r24	; 0x3d
		__ticks = 1;
	else if (__tmp > 65535)
	{
		//	__ticks = requested delay in 1/10 ms
		__ticks = (uint16_t) (__ms * 10.0);
		while(__ticks)
    3376:	8d ad       	ldd	r24, Y+61	; 0x3d
    3378:	9e ad       	ldd	r25, Y+62	; 0x3e
    337a:	00 97       	sbiw	r24, 0x00	; 0
    337c:	69 f7       	brne	.-38     	; 0x3358 <LCD_enuWriteNLatch+0x2ea>
    337e:	16 c0       	rjmp	.+44     	; 0x33ac <LCD_enuWriteNLatch+0x33e>
			__ticks --;
		}
		return;
	}
	else
		__ticks = (uint16_t)__tmp;
    3380:	fe 01       	movw	r30, r28
    3382:	ff 96       	adiw	r30, 0x3f	; 63
    3384:	60 81       	ld	r22, Z
    3386:	71 81       	ldd	r23, Z+1	; 0x01
    3388:	82 81       	ldd	r24, Z+2	; 0x02
    338a:	93 81       	ldd	r25, Z+3	; 0x03
    338c:	0e 94 49 00 	call	0x92	; 0x92 <__fixunssfsi>
    3390:	dc 01       	movw	r26, r24
    3392:	cb 01       	movw	r24, r22
    3394:	9e af       	std	Y+62, r25	; 0x3e
    3396:	8d af       	std	Y+61, r24	; 0x3d
    3398:	8d ad       	ldd	r24, Y+61	; 0x3d
    339a:	9e ad       	ldd	r25, Y+62	; 0x3e
    339c:	9a af       	std	Y+58, r25	; 0x3a
    339e:	89 af       	std	Y+57, r24	; 0x39
    33a0:	89 ad       	ldd	r24, Y+57	; 0x39
    33a2:	9a ad       	ldd	r25, Y+58	; 0x3a
    33a4:	01 97       	sbiw	r24, 0x01	; 1
    33a6:	f1 f7       	brne	.-4      	; 0x33a4 <LCD_enuWriteNLatch+0x336>
    33a8:	9a af       	std	Y+58, r25	; 0x3a
    33aa:	89 af       	std	Y+57, r24	; 0x39
		}
	}

#if LCD_MODE == FOUR_BIT //'A' =65=0b 0100  0001

	DIO_enuSetPinValue(D7_PORT, D7_PIN , ((Copy_u8Data>>7)&1));
    33ac:	fe 01       	movw	r30, r28
    33ae:	ea 5a       	subi	r30, 0xAA	; 170
    33b0:	ff 4f       	sbci	r31, 0xFF	; 255
    33b2:	80 81       	ld	r24, Z
    33b4:	98 2f       	mov	r25, r24
    33b6:	99 1f       	adc	r25, r25
    33b8:	99 27       	eor	r25, r25
    33ba:	99 1f       	adc	r25, r25
    33bc:	80 e0       	ldi	r24, 0x00	; 0
    33be:	67 e0       	ldi	r22, 0x07	; 7
    33c0:	49 2f       	mov	r20, r25
    33c2:	0e 94 8a 08 	call	0x1114	; 0x1114 <DIO_enuSetPinValue>
	DIO_enuSetPinValue(D6_PORT, D6_PIN , ((Copy_u8Data>>6)&1));
    33c6:	fe 01       	movw	r30, r28
    33c8:	ea 5a       	subi	r30, 0xAA	; 170
    33ca:	ff 4f       	sbci	r31, 0xFF	; 255
    33cc:	80 81       	ld	r24, Z
    33ce:	82 95       	swap	r24
    33d0:	86 95       	lsr	r24
    33d2:	86 95       	lsr	r24
    33d4:	83 70       	andi	r24, 0x03	; 3
    33d6:	98 2f       	mov	r25, r24
    33d8:	91 70       	andi	r25, 0x01	; 1
    33da:	80 e0       	ldi	r24, 0x00	; 0
    33dc:	66 e0       	ldi	r22, 0x06	; 6
    33de:	49 2f       	mov	r20, r25
    33e0:	0e 94 8a 08 	call	0x1114	; 0x1114 <DIO_enuSetPinValue>
	DIO_enuSetPinValue(D5_PORT, D5_PIN , ((Copy_u8Data>>5)&1));
    33e4:	fe 01       	movw	r30, r28
    33e6:	ea 5a       	subi	r30, 0xAA	; 170
    33e8:	ff 4f       	sbci	r31, 0xFF	; 255
    33ea:	80 81       	ld	r24, Z
    33ec:	82 95       	swap	r24
    33ee:	86 95       	lsr	r24
    33f0:	87 70       	andi	r24, 0x07	; 7
    33f2:	98 2f       	mov	r25, r24
    33f4:	91 70       	andi	r25, 0x01	; 1
    33f6:	80 e0       	ldi	r24, 0x00	; 0
    33f8:	65 e0       	ldi	r22, 0x05	; 5
    33fa:	49 2f       	mov	r20, r25
    33fc:	0e 94 8a 08 	call	0x1114	; 0x1114 <DIO_enuSetPinValue>
	DIO_enuSetPinValue(D4_PORT, D4_PIN , ((Copy_u8Data>>4)&1));
    3400:	fe 01       	movw	r30, r28
    3402:	ea 5a       	subi	r30, 0xAA	; 170
    3404:	ff 4f       	sbci	r31, 0xFF	; 255
    3406:	80 81       	ld	r24, Z
    3408:	82 95       	swap	r24
    340a:	8f 70       	andi	r24, 0x0F	; 15
    340c:	98 2f       	mov	r25, r24
    340e:	91 70       	andi	r25, 0x01	; 1
    3410:	80 e0       	ldi	r24, 0x00	; 0
    3412:	64 e0       	ldi	r22, 0x04	; 4
    3414:	49 2f       	mov	r20, r25
    3416:	0e 94 8a 08 	call	0x1114	; 0x1114 <DIO_enuSetPinValue>

	DIO_enuSetPinValue(EN_PORT, EN_PIN , DIO_u8HIGH);
    341a:	80 e0       	ldi	r24, 0x00	; 0
    341c:	61 e0       	ldi	r22, 0x01	; 1
    341e:	41 e0       	ldi	r20, 0x01	; 1
    3420:	0e 94 8a 08 	call	0x1114	; 0x1114 <DIO_enuSetPinValue>
    3424:	80 e0       	ldi	r24, 0x00	; 0
    3426:	90 e0       	ldi	r25, 0x00	; 0
    3428:	a0 ea       	ldi	r26, 0xA0	; 160
    342a:	b0 e4       	ldi	r27, 0x40	; 64
    342c:	8d ab       	std	Y+53, r24	; 0x35
    342e:	9e ab       	std	Y+54, r25	; 0x36
    3430:	af ab       	std	Y+55, r26	; 0x37
    3432:	b8 af       	std	Y+56, r27	; 0x38
 */
void
_delay_ms(double __ms)
{
	uint16_t __ticks;
	double __tmp = ((F_CPU) / 4e3) * __ms;
    3434:	6d a9       	ldd	r22, Y+53	; 0x35
    3436:	7e a9       	ldd	r23, Y+54	; 0x36
    3438:	8f a9       	ldd	r24, Y+55	; 0x37
    343a:	98 ad       	ldd	r25, Y+56	; 0x38
    343c:	20 e0       	ldi	r18, 0x00	; 0
    343e:	30 e0       	ldi	r19, 0x00	; 0
    3440:	4a e7       	ldi	r20, 0x7A	; 122
    3442:	55 e4       	ldi	r21, 0x45	; 69
    3444:	0e 94 1f 02 	call	0x43e	; 0x43e <__mulsf3>
    3448:	dc 01       	movw	r26, r24
    344a:	cb 01       	movw	r24, r22
    344c:	89 ab       	std	Y+49, r24	; 0x31
    344e:	9a ab       	std	Y+50, r25	; 0x32
    3450:	ab ab       	std	Y+51, r26	; 0x33
    3452:	bc ab       	std	Y+52, r27	; 0x34
	if (__tmp < 1.0)
    3454:	69 a9       	ldd	r22, Y+49	; 0x31
    3456:	7a a9       	ldd	r23, Y+50	; 0x32
    3458:	8b a9       	ldd	r24, Y+51	; 0x33
    345a:	9c a9       	ldd	r25, Y+52	; 0x34
    345c:	20 e0       	ldi	r18, 0x00	; 0
    345e:	30 e0       	ldi	r19, 0x00	; 0
    3460:	40 e8       	ldi	r20, 0x80	; 128
    3462:	5f e3       	ldi	r21, 0x3F	; 63
    3464:	0e 94 79 03 	call	0x6f2	; 0x6f2 <__ltsf2>
    3468:	88 23       	and	r24, r24
    346a:	2c f4       	brge	.+10     	; 0x3476 <LCD_enuWriteNLatch+0x408>
		__ticks = 1;
    346c:	81 e0       	ldi	r24, 0x01	; 1
    346e:	90 e0       	ldi	r25, 0x00	; 0
    3470:	98 ab       	std	Y+48, r25	; 0x30
    3472:	8f a7       	std	Y+47, r24	; 0x2f
    3474:	3f c0       	rjmp	.+126    	; 0x34f4 <LCD_enuWriteNLatch+0x486>
	else if (__tmp > 65535)
    3476:	69 a9       	ldd	r22, Y+49	; 0x31
    3478:	7a a9       	ldd	r23, Y+50	; 0x32
    347a:	8b a9       	ldd	r24, Y+51	; 0x33
    347c:	9c a9       	ldd	r25, Y+52	; 0x34
    347e:	20 e0       	ldi	r18, 0x00	; 0
    3480:	3f ef       	ldi	r19, 0xFF	; 255
    3482:	4f e7       	ldi	r20, 0x7F	; 127
    3484:	57 e4       	ldi	r21, 0x47	; 71
    3486:	0e 94 19 03 	call	0x632	; 0x632 <__gtsf2>
    348a:	18 16       	cp	r1, r24
    348c:	4c f5       	brge	.+82     	; 0x34e0 <LCD_enuWriteNLatch+0x472>
	{
		//	__ticks = requested delay in 1/10 ms
		__ticks = (uint16_t) (__ms * 10.0);
    348e:	6d a9       	ldd	r22, Y+53	; 0x35
    3490:	7e a9       	ldd	r23, Y+54	; 0x36
    3492:	8f a9       	ldd	r24, Y+55	; 0x37
    3494:	98 ad       	ldd	r25, Y+56	; 0x38
    3496:	20 e0       	ldi	r18, 0x00	; 0
    3498:	30 e0       	ldi	r19, 0x00	; 0
    349a:	40 e2       	ldi	r20, 0x20	; 32
    349c:	51 e4       	ldi	r21, 0x41	; 65
    349e:	0e 94 1f 02 	call	0x43e	; 0x43e <__mulsf3>
    34a2:	dc 01       	movw	r26, r24
    34a4:	cb 01       	movw	r24, r22
    34a6:	bc 01       	movw	r22, r24
    34a8:	cd 01       	movw	r24, r26
    34aa:	0e 94 49 00 	call	0x92	; 0x92 <__fixunssfsi>
    34ae:	dc 01       	movw	r26, r24
    34b0:	cb 01       	movw	r24, r22
    34b2:	98 ab       	std	Y+48, r25	; 0x30
    34b4:	8f a7       	std	Y+47, r24	; 0x2f
    34b6:	0f c0       	rjmp	.+30     	; 0x34d6 <LCD_enuWriteNLatch+0x468>
    34b8:	80 e9       	ldi	r24, 0x90	; 144
    34ba:	91 e0       	ldi	r25, 0x01	; 1
    34bc:	9e a7       	std	Y+46, r25	; 0x2e
    34be:	8d a7       	std	Y+45, r24	; 0x2d
    34c0:	8d a5       	ldd	r24, Y+45	; 0x2d
    34c2:	9e a5       	ldd	r25, Y+46	; 0x2e
    34c4:	01 97       	sbiw	r24, 0x01	; 1
    34c6:	f1 f7       	brne	.-4      	; 0x34c4 <LCD_enuWriteNLatch+0x456>
    34c8:	9e a7       	std	Y+46, r25	; 0x2e
    34ca:	8d a7       	std	Y+45, r24	; 0x2d
		while(__ticks)
		{
			// wait 1/10 ms
			_delay_loop_2(((F_CPU) / 4e3) / 10);
			__ticks --;
    34cc:	8f a5       	ldd	r24, Y+47	; 0x2f
    34ce:	98 a9       	ldd	r25, Y+48	; 0x30
    34d0:	01 97       	sbiw	r24, 0x01	; 1
    34d2:	98 ab       	std	Y+48, r25	; 0x30
    34d4:	8f a7       	std	Y+47, r24	; 0x2f
		__ticks = 1;
	else if (__tmp > 65535)
	{
		//	__ticks = requested delay in 1/10 ms
		__ticks = (uint16_t) (__ms * 10.0);
		while(__ticks)
    34d6:	8f a5       	ldd	r24, Y+47	; 0x2f
    34d8:	98 a9       	ldd	r25, Y+48	; 0x30
    34da:	00 97       	sbiw	r24, 0x00	; 0
    34dc:	69 f7       	brne	.-38     	; 0x34b8 <LCD_enuWriteNLatch+0x44a>
    34de:	14 c0       	rjmp	.+40     	; 0x3508 <LCD_enuWriteNLatch+0x49a>
			__ticks --;
		}
		return;
	}
	else
		__ticks = (uint16_t)__tmp;
    34e0:	69 a9       	ldd	r22, Y+49	; 0x31
    34e2:	7a a9       	ldd	r23, Y+50	; 0x32
    34e4:	8b a9       	ldd	r24, Y+51	; 0x33
    34e6:	9c a9       	ldd	r25, Y+52	; 0x34
    34e8:	0e 94 49 00 	call	0x92	; 0x92 <__fixunssfsi>
    34ec:	dc 01       	movw	r26, r24
    34ee:	cb 01       	movw	r24, r22
    34f0:	98 ab       	std	Y+48, r25	; 0x30
    34f2:	8f a7       	std	Y+47, r24	; 0x2f
    34f4:	8f a5       	ldd	r24, Y+47	; 0x2f
    34f6:	98 a9       	ldd	r25, Y+48	; 0x30
    34f8:	9c a7       	std	Y+44, r25	; 0x2c
    34fa:	8b a7       	std	Y+43, r24	; 0x2b
    34fc:	8b a5       	ldd	r24, Y+43	; 0x2b
    34fe:	9c a5       	ldd	r25, Y+44	; 0x2c
    3500:	01 97       	sbiw	r24, 0x01	; 1
    3502:	f1 f7       	brne	.-4      	; 0x3500 <LCD_enuWriteNLatch+0x492>
    3504:	9c a7       	std	Y+44, r25	; 0x2c
    3506:	8b a7       	std	Y+43, r24	; 0x2b
	_delay_ms(5);
	DIO_enuSetPinValue(EN_PORT, EN_PIN, DIO_u8LOW);
    3508:	80 e0       	ldi	r24, 0x00	; 0
    350a:	61 e0       	ldi	r22, 0x01	; 1
    350c:	40 e0       	ldi	r20, 0x00	; 0
    350e:	0e 94 8a 08 	call	0x1114	; 0x1114 <DIO_enuSetPinValue>
    3512:	80 e0       	ldi	r24, 0x00	; 0
    3514:	90 e0       	ldi	r25, 0x00	; 0
    3516:	a0 ea       	ldi	r26, 0xA0	; 160
    3518:	b0 e4       	ldi	r27, 0x40	; 64
    351a:	8f a3       	std	Y+39, r24	; 0x27
    351c:	98 a7       	std	Y+40, r25	; 0x28
    351e:	a9 a7       	std	Y+41, r26	; 0x29
    3520:	ba a7       	std	Y+42, r27	; 0x2a
 */
void
_delay_ms(double __ms)
{
	uint16_t __ticks;
	double __tmp = ((F_CPU) / 4e3) * __ms;
    3522:	6f a1       	ldd	r22, Y+39	; 0x27
    3524:	78 a5       	ldd	r23, Y+40	; 0x28
    3526:	89 a5       	ldd	r24, Y+41	; 0x29
    3528:	9a a5       	ldd	r25, Y+42	; 0x2a
    352a:	20 e0       	ldi	r18, 0x00	; 0
    352c:	30 e0       	ldi	r19, 0x00	; 0
    352e:	4a e7       	ldi	r20, 0x7A	; 122
    3530:	55 e4       	ldi	r21, 0x45	; 69
    3532:	0e 94 1f 02 	call	0x43e	; 0x43e <__mulsf3>
    3536:	dc 01       	movw	r26, r24
    3538:	cb 01       	movw	r24, r22
    353a:	8b a3       	std	Y+35, r24	; 0x23
    353c:	9c a3       	std	Y+36, r25	; 0x24
    353e:	ad a3       	std	Y+37, r26	; 0x25
    3540:	be a3       	std	Y+38, r27	; 0x26
	if (__tmp < 1.0)
    3542:	6b a1       	ldd	r22, Y+35	; 0x23
    3544:	7c a1       	ldd	r23, Y+36	; 0x24
    3546:	8d a1       	ldd	r24, Y+37	; 0x25
    3548:	9e a1       	ldd	r25, Y+38	; 0x26
    354a:	20 e0       	ldi	r18, 0x00	; 0
    354c:	30 e0       	ldi	r19, 0x00	; 0
    354e:	40 e8       	ldi	r20, 0x80	; 128
    3550:	5f e3       	ldi	r21, 0x3F	; 63
    3552:	0e 94 79 03 	call	0x6f2	; 0x6f2 <__ltsf2>
    3556:	88 23       	and	r24, r24
    3558:	2c f4       	brge	.+10     	; 0x3564 <LCD_enuWriteNLatch+0x4f6>
		__ticks = 1;
    355a:	81 e0       	ldi	r24, 0x01	; 1
    355c:	90 e0       	ldi	r25, 0x00	; 0
    355e:	9a a3       	std	Y+34, r25	; 0x22
    3560:	89 a3       	std	Y+33, r24	; 0x21
    3562:	3f c0       	rjmp	.+126    	; 0x35e2 <LCD_enuWriteNLatch+0x574>
	else if (__tmp > 65535)
    3564:	6b a1       	ldd	r22, Y+35	; 0x23
    3566:	7c a1       	ldd	r23, Y+36	; 0x24
    3568:	8d a1       	ldd	r24, Y+37	; 0x25
    356a:	9e a1       	ldd	r25, Y+38	; 0x26
    356c:	20 e0       	ldi	r18, 0x00	; 0
    356e:	3f ef       	ldi	r19, 0xFF	; 255
    3570:	4f e7       	ldi	r20, 0x7F	; 127
    3572:	57 e4       	ldi	r21, 0x47	; 71
    3574:	0e 94 19 03 	call	0x632	; 0x632 <__gtsf2>
    3578:	18 16       	cp	r1, r24
    357a:	4c f5       	brge	.+82     	; 0x35ce <LCD_enuWriteNLatch+0x560>
	{
		//	__ticks = requested delay in 1/10 ms
		__ticks = (uint16_t) (__ms * 10.0);
    357c:	6f a1       	ldd	r22, Y+39	; 0x27
    357e:	78 a5       	ldd	r23, Y+40	; 0x28
    3580:	89 a5       	ldd	r24, Y+41	; 0x29
    3582:	9a a5       	ldd	r25, Y+42	; 0x2a
    3584:	20 e0       	ldi	r18, 0x00	; 0
    3586:	30 e0       	ldi	r19, 0x00	; 0
    3588:	40 e2       	ldi	r20, 0x20	; 32
    358a:	51 e4       	ldi	r21, 0x41	; 65
    358c:	0e 94 1f 02 	call	0x43e	; 0x43e <__mulsf3>
    3590:	dc 01       	movw	r26, r24
    3592:	cb 01       	movw	r24, r22
    3594:	bc 01       	movw	r22, r24
    3596:	cd 01       	movw	r24, r26
    3598:	0e 94 49 00 	call	0x92	; 0x92 <__fixunssfsi>
    359c:	dc 01       	movw	r26, r24
    359e:	cb 01       	movw	r24, r22
    35a0:	9a a3       	std	Y+34, r25	; 0x22
    35a2:	89 a3       	std	Y+33, r24	; 0x21
    35a4:	0f c0       	rjmp	.+30     	; 0x35c4 <LCD_enuWriteNLatch+0x556>
    35a6:	80 e9       	ldi	r24, 0x90	; 144
    35a8:	91 e0       	ldi	r25, 0x01	; 1
    35aa:	98 a3       	std	Y+32, r25	; 0x20
    35ac:	8f 8f       	std	Y+31, r24	; 0x1f
    35ae:	8f 8d       	ldd	r24, Y+31	; 0x1f
    35b0:	98 a1       	ldd	r25, Y+32	; 0x20
    35b2:	01 97       	sbiw	r24, 0x01	; 1
    35b4:	f1 f7       	brne	.-4      	; 0x35b2 <LCD_enuWriteNLatch+0x544>
    35b6:	98 a3       	std	Y+32, r25	; 0x20
    35b8:	8f 8f       	std	Y+31, r24	; 0x1f
		while(__ticks)
		{
			// wait 1/10 ms
			_delay_loop_2(((F_CPU) / 4e3) / 10);
			__ticks --;
    35ba:	89 a1       	ldd	r24, Y+33	; 0x21
    35bc:	9a a1       	ldd	r25, Y+34	; 0x22
    35be:	01 97       	sbiw	r24, 0x01	; 1
    35c0:	9a a3       	std	Y+34, r25	; 0x22
    35c2:	89 a3       	std	Y+33, r24	; 0x21
		__ticks = 1;
	else if (__tmp > 65535)
	{
		//	__ticks = requested delay in 1/10 ms
		__ticks = (uint16_t) (__ms * 10.0);
		while(__ticks)
    35c4:	89 a1       	ldd	r24, Y+33	; 0x21
    35c6:	9a a1       	ldd	r25, Y+34	; 0x22
    35c8:	00 97       	sbiw	r24, 0x00	; 0
    35ca:	69 f7       	brne	.-38     	; 0x35a6 <LCD_enuWriteNLatch+0x538>
    35cc:	14 c0       	rjmp	.+40     	; 0x35f6 <LCD_enuWriteNLatch+0x588>
			__ticks --;
		}
		return;
	}
	else
		__ticks = (uint16_t)__tmp;
    35ce:	6b a1       	ldd	r22, Y+35	; 0x23
    35d0:	7c a1       	ldd	r23, Y+36	; 0x24
    35d2:	8d a1       	ldd	r24, Y+37	; 0x25
    35d4:	9e a1       	ldd	r25, Y+38	; 0x26
    35d6:	0e 94 49 00 	call	0x92	; 0x92 <__fixunssfsi>
    35da:	dc 01       	movw	r26, r24
    35dc:	cb 01       	movw	r24, r22
    35de:	9a a3       	std	Y+34, r25	; 0x22
    35e0:	89 a3       	std	Y+33, r24	; 0x21
    35e2:	89 a1       	ldd	r24, Y+33	; 0x21
    35e4:	9a a1       	ldd	r25, Y+34	; 0x22
    35e6:	9e 8f       	std	Y+30, r25	; 0x1e
    35e8:	8d 8f       	std	Y+29, r24	; 0x1d
    35ea:	8d 8d       	ldd	r24, Y+29	; 0x1d
    35ec:	9e 8d       	ldd	r25, Y+30	; 0x1e
    35ee:	01 97       	sbiw	r24, 0x01	; 1
    35f0:	f1 f7       	brne	.-4      	; 0x35ee <LCD_enuWriteNLatch+0x580>
    35f2:	9e 8f       	std	Y+30, r25	; 0x1e
    35f4:	8d 8f       	std	Y+29, r24	; 0x1d
	_delay_ms(5);


	DIO_enuSetPinValue(D7_PORT, D7_PIN , ((Copy_u8Data>>3)&1));
    35f6:	fe 01       	movw	r30, r28
    35f8:	ea 5a       	subi	r30, 0xAA	; 170
    35fa:	ff 4f       	sbci	r31, 0xFF	; 255
    35fc:	80 81       	ld	r24, Z
    35fe:	86 95       	lsr	r24
    3600:	86 95       	lsr	r24
    3602:	86 95       	lsr	r24
    3604:	98 2f       	mov	r25, r24
    3606:	91 70       	andi	r25, 0x01	; 1
    3608:	80 e0       	ldi	r24, 0x00	; 0
    360a:	67 e0       	ldi	r22, 0x07	; 7
    360c:	49 2f       	mov	r20, r25
    360e:	0e 94 8a 08 	call	0x1114	; 0x1114 <DIO_enuSetPinValue>
	DIO_enuSetPinValue(D6_PORT, D6_PIN , ((Copy_u8Data>>2)&1));
    3612:	fe 01       	movw	r30, r28
    3614:	ea 5a       	subi	r30, 0xAA	; 170
    3616:	ff 4f       	sbci	r31, 0xFF	; 255
    3618:	80 81       	ld	r24, Z
    361a:	86 95       	lsr	r24
    361c:	86 95       	lsr	r24
    361e:	98 2f       	mov	r25, r24
    3620:	91 70       	andi	r25, 0x01	; 1
    3622:	80 e0       	ldi	r24, 0x00	; 0
    3624:	66 e0       	ldi	r22, 0x06	; 6
    3626:	49 2f       	mov	r20, r25
    3628:	0e 94 8a 08 	call	0x1114	; 0x1114 <DIO_enuSetPinValue>
	DIO_enuSetPinValue(D5_PORT, D5_PIN , ((Copy_u8Data>>1)&1));
    362c:	fe 01       	movw	r30, r28
    362e:	ea 5a       	subi	r30, 0xAA	; 170
    3630:	ff 4f       	sbci	r31, 0xFF	; 255
    3632:	80 81       	ld	r24, Z
    3634:	86 95       	lsr	r24
    3636:	98 2f       	mov	r25, r24
    3638:	91 70       	andi	r25, 0x01	; 1
    363a:	80 e0       	ldi	r24, 0x00	; 0
    363c:	65 e0       	ldi	r22, 0x05	; 5
    363e:	49 2f       	mov	r20, r25
    3640:	0e 94 8a 08 	call	0x1114	; 0x1114 <DIO_enuSetPinValue>
	DIO_enuSetPinValue(D4_PORT, D4_PIN , ((Copy_u8Data>>0)&1));
    3644:	fe 01       	movw	r30, r28
    3646:	ea 5a       	subi	r30, 0xAA	; 170
    3648:	ff 4f       	sbci	r31, 0xFF	; 255
    364a:	80 81       	ld	r24, Z
    364c:	98 2f       	mov	r25, r24
    364e:	91 70       	andi	r25, 0x01	; 1
    3650:	80 e0       	ldi	r24, 0x00	; 0
    3652:	64 e0       	ldi	r22, 0x04	; 4
    3654:	49 2f       	mov	r20, r25
    3656:	0e 94 8a 08 	call	0x1114	; 0x1114 <DIO_enuSetPinValue>

	DIO_enuSetPinValue(EN_PORT, EN_PIN , DIO_u8HIGH);
    365a:	80 e0       	ldi	r24, 0x00	; 0
    365c:	61 e0       	ldi	r22, 0x01	; 1
    365e:	41 e0       	ldi	r20, 0x01	; 1
    3660:	0e 94 8a 08 	call	0x1114	; 0x1114 <DIO_enuSetPinValue>
    3664:	80 e0       	ldi	r24, 0x00	; 0
    3666:	90 e0       	ldi	r25, 0x00	; 0
    3668:	a0 ea       	ldi	r26, 0xA0	; 160
    366a:	b0 e4       	ldi	r27, 0x40	; 64
    366c:	89 8f       	std	Y+25, r24	; 0x19
    366e:	9a 8f       	std	Y+26, r25	; 0x1a
    3670:	ab 8f       	std	Y+27, r26	; 0x1b
    3672:	bc 8f       	std	Y+28, r27	; 0x1c
 */
void
_delay_ms(double __ms)
{
	uint16_t __ticks;
	double __tmp = ((F_CPU) / 4e3) * __ms;
    3674:	69 8d       	ldd	r22, Y+25	; 0x19
    3676:	7a 8d       	ldd	r23, Y+26	; 0x1a
    3678:	8b 8d       	ldd	r24, Y+27	; 0x1b
    367a:	9c 8d       	ldd	r25, Y+28	; 0x1c
    367c:	20 e0       	ldi	r18, 0x00	; 0
    367e:	30 e0       	ldi	r19, 0x00	; 0
    3680:	4a e7       	ldi	r20, 0x7A	; 122
    3682:	55 e4       	ldi	r21, 0x45	; 69
    3684:	0e 94 1f 02 	call	0x43e	; 0x43e <__mulsf3>
    3688:	dc 01       	movw	r26, r24
    368a:	cb 01       	movw	r24, r22
    368c:	8d 8b       	std	Y+21, r24	; 0x15
    368e:	9e 8b       	std	Y+22, r25	; 0x16
    3690:	af 8b       	std	Y+23, r26	; 0x17
    3692:	b8 8f       	std	Y+24, r27	; 0x18
	if (__tmp < 1.0)
    3694:	6d 89       	ldd	r22, Y+21	; 0x15
    3696:	7e 89       	ldd	r23, Y+22	; 0x16
    3698:	8f 89       	ldd	r24, Y+23	; 0x17
    369a:	98 8d       	ldd	r25, Y+24	; 0x18
    369c:	20 e0       	ldi	r18, 0x00	; 0
    369e:	30 e0       	ldi	r19, 0x00	; 0
    36a0:	40 e8       	ldi	r20, 0x80	; 128
    36a2:	5f e3       	ldi	r21, 0x3F	; 63
    36a4:	0e 94 79 03 	call	0x6f2	; 0x6f2 <__ltsf2>
    36a8:	88 23       	and	r24, r24
    36aa:	2c f4       	brge	.+10     	; 0x36b6 <LCD_enuWriteNLatch+0x648>
		__ticks = 1;
    36ac:	81 e0       	ldi	r24, 0x01	; 1
    36ae:	90 e0       	ldi	r25, 0x00	; 0
    36b0:	9c 8b       	std	Y+20, r25	; 0x14
    36b2:	8b 8b       	std	Y+19, r24	; 0x13
    36b4:	3f c0       	rjmp	.+126    	; 0x3734 <LCD_enuWriteNLatch+0x6c6>
	else if (__tmp > 65535)
    36b6:	6d 89       	ldd	r22, Y+21	; 0x15
    36b8:	7e 89       	ldd	r23, Y+22	; 0x16
    36ba:	8f 89       	ldd	r24, Y+23	; 0x17
    36bc:	98 8d       	ldd	r25, Y+24	; 0x18
    36be:	20 e0       	ldi	r18, 0x00	; 0
    36c0:	3f ef       	ldi	r19, 0xFF	; 255
    36c2:	4f e7       	ldi	r20, 0x7F	; 127
    36c4:	57 e4       	ldi	r21, 0x47	; 71
    36c6:	0e 94 19 03 	call	0x632	; 0x632 <__gtsf2>
    36ca:	18 16       	cp	r1, r24
    36cc:	4c f5       	brge	.+82     	; 0x3720 <LCD_enuWriteNLatch+0x6b2>
	{
		//	__ticks = requested delay in 1/10 ms
		__ticks = (uint16_t) (__ms * 10.0);
    36ce:	69 8d       	ldd	r22, Y+25	; 0x19
    36d0:	7a 8d       	ldd	r23, Y+26	; 0x1a
    36d2:	8b 8d       	ldd	r24, Y+27	; 0x1b
    36d4:	9c 8d       	ldd	r25, Y+28	; 0x1c
    36d6:	20 e0       	ldi	r18, 0x00	; 0
    36d8:	30 e0       	ldi	r19, 0x00	; 0
    36da:	40 e2       	ldi	r20, 0x20	; 32
    36dc:	51 e4       	ldi	r21, 0x41	; 65
    36de:	0e 94 1f 02 	call	0x43e	; 0x43e <__mulsf3>
    36e2:	dc 01       	movw	r26, r24
    36e4:	cb 01       	movw	r24, r22
    36e6:	bc 01       	movw	r22, r24
    36e8:	cd 01       	movw	r24, r26
    36ea:	0e 94 49 00 	call	0x92	; 0x92 <__fixunssfsi>
    36ee:	dc 01       	movw	r26, r24
    36f0:	cb 01       	movw	r24, r22
    36f2:	9c 8b       	std	Y+20, r25	; 0x14
    36f4:	8b 8b       	std	Y+19, r24	; 0x13
    36f6:	0f c0       	rjmp	.+30     	; 0x3716 <LCD_enuWriteNLatch+0x6a8>
    36f8:	80 e9       	ldi	r24, 0x90	; 144
    36fa:	91 e0       	ldi	r25, 0x01	; 1
    36fc:	9a 8b       	std	Y+18, r25	; 0x12
    36fe:	89 8b       	std	Y+17, r24	; 0x11
    3700:	89 89       	ldd	r24, Y+17	; 0x11
    3702:	9a 89       	ldd	r25, Y+18	; 0x12
    3704:	01 97       	sbiw	r24, 0x01	; 1
    3706:	f1 f7       	brne	.-4      	; 0x3704 <LCD_enuWriteNLatch+0x696>
    3708:	9a 8b       	std	Y+18, r25	; 0x12
    370a:	89 8b       	std	Y+17, r24	; 0x11
		while(__ticks)
		{
			// wait 1/10 ms
			_delay_loop_2(((F_CPU) / 4e3) / 10);
			__ticks --;
    370c:	8b 89       	ldd	r24, Y+19	; 0x13
    370e:	9c 89       	ldd	r25, Y+20	; 0x14
    3710:	01 97       	sbiw	r24, 0x01	; 1
    3712:	9c 8b       	std	Y+20, r25	; 0x14
    3714:	8b 8b       	std	Y+19, r24	; 0x13
		__ticks = 1;
	else if (__tmp > 65535)
	{
		//	__ticks = requested delay in 1/10 ms
		__ticks = (uint16_t) (__ms * 10.0);
		while(__ticks)
    3716:	8b 89       	ldd	r24, Y+19	; 0x13
    3718:	9c 89       	ldd	r25, Y+20	; 0x14
    371a:	00 97       	sbiw	r24, 0x00	; 0
    371c:	69 f7       	brne	.-38     	; 0x36f8 <LCD_enuWriteNLatch+0x68a>
    371e:	14 c0       	rjmp	.+40     	; 0x3748 <LCD_enuWriteNLatch+0x6da>
			__ticks --;
		}
		return;
	}
	else
		__ticks = (uint16_t)__tmp;
    3720:	6d 89       	ldd	r22, Y+21	; 0x15
    3722:	7e 89       	ldd	r23, Y+22	; 0x16
    3724:	8f 89       	ldd	r24, Y+23	; 0x17
    3726:	98 8d       	ldd	r25, Y+24	; 0x18
    3728:	0e 94 49 00 	call	0x92	; 0x92 <__fixunssfsi>
    372c:	dc 01       	movw	r26, r24
    372e:	cb 01       	movw	r24, r22
    3730:	9c 8b       	std	Y+20, r25	; 0x14
    3732:	8b 8b       	std	Y+19, r24	; 0x13
    3734:	8b 89       	ldd	r24, Y+19	; 0x13
    3736:	9c 89       	ldd	r25, Y+20	; 0x14
    3738:	98 8b       	std	Y+16, r25	; 0x10
    373a:	8f 87       	std	Y+15, r24	; 0x0f
    373c:	8f 85       	ldd	r24, Y+15	; 0x0f
    373e:	98 89       	ldd	r25, Y+16	; 0x10
    3740:	01 97       	sbiw	r24, 0x01	; 1
    3742:	f1 f7       	brne	.-4      	; 0x3740 <LCD_enuWriteNLatch+0x6d2>
    3744:	98 8b       	std	Y+16, r25	; 0x10
    3746:	8f 87       	std	Y+15, r24	; 0x0f
	_delay_ms(5);
	DIO_enuSetPinValue(EN_PORT, EN_PIN, DIO_u8LOW);
    3748:	80 e0       	ldi	r24, 0x00	; 0
    374a:	61 e0       	ldi	r22, 0x01	; 1
    374c:	40 e0       	ldi	r20, 0x00	; 0
    374e:	0e 94 8a 08 	call	0x1114	; 0x1114 <DIO_enuSetPinValue>
    3752:	80 e0       	ldi	r24, 0x00	; 0
    3754:	90 e0       	ldi	r25, 0x00	; 0
    3756:	a0 ea       	ldi	r26, 0xA0	; 160
    3758:	b0 e4       	ldi	r27, 0x40	; 64
    375a:	8b 87       	std	Y+11, r24	; 0x0b
    375c:	9c 87       	std	Y+12, r25	; 0x0c
    375e:	ad 87       	std	Y+13, r26	; 0x0d
    3760:	be 87       	std	Y+14, r27	; 0x0e
 */
void
_delay_ms(double __ms)
{
	uint16_t __ticks;
	double __tmp = ((F_CPU) / 4e3) * __ms;
    3762:	6b 85       	ldd	r22, Y+11	; 0x0b
    3764:	7c 85       	ldd	r23, Y+12	; 0x0c
    3766:	8d 85       	ldd	r24, Y+13	; 0x0d
    3768:	9e 85       	ldd	r25, Y+14	; 0x0e
    376a:	20 e0       	ldi	r18, 0x00	; 0
    376c:	30 e0       	ldi	r19, 0x00	; 0
    376e:	4a e7       	ldi	r20, 0x7A	; 122
    3770:	55 e4       	ldi	r21, 0x45	; 69
    3772:	0e 94 1f 02 	call	0x43e	; 0x43e <__mulsf3>
    3776:	dc 01       	movw	r26, r24
    3778:	cb 01       	movw	r24, r22
    377a:	8f 83       	std	Y+7, r24	; 0x07
    377c:	98 87       	std	Y+8, r25	; 0x08
    377e:	a9 87       	std	Y+9, r26	; 0x09
    3780:	ba 87       	std	Y+10, r27	; 0x0a
	if (__tmp < 1.0)
    3782:	6f 81       	ldd	r22, Y+7	; 0x07
    3784:	78 85       	ldd	r23, Y+8	; 0x08
    3786:	89 85       	ldd	r24, Y+9	; 0x09
    3788:	9a 85       	ldd	r25, Y+10	; 0x0a
    378a:	20 e0       	ldi	r18, 0x00	; 0
    378c:	30 e0       	ldi	r19, 0x00	; 0
    378e:	40 e8       	ldi	r20, 0x80	; 128
    3790:	5f e3       	ldi	r21, 0x3F	; 63
    3792:	0e 94 79 03 	call	0x6f2	; 0x6f2 <__ltsf2>
    3796:	88 23       	and	r24, r24
    3798:	2c f4       	brge	.+10     	; 0x37a4 <LCD_enuWriteNLatch+0x736>
		__ticks = 1;
    379a:	81 e0       	ldi	r24, 0x01	; 1
    379c:	90 e0       	ldi	r25, 0x00	; 0
    379e:	9e 83       	std	Y+6, r25	; 0x06
    37a0:	8d 83       	std	Y+5, r24	; 0x05
    37a2:	3f c0       	rjmp	.+126    	; 0x3822 <LCD_enuWriteNLatch+0x7b4>
	else if (__tmp > 65535)
    37a4:	6f 81       	ldd	r22, Y+7	; 0x07
    37a6:	78 85       	ldd	r23, Y+8	; 0x08
    37a8:	89 85       	ldd	r24, Y+9	; 0x09
    37aa:	9a 85       	ldd	r25, Y+10	; 0x0a
    37ac:	20 e0       	ldi	r18, 0x00	; 0
    37ae:	3f ef       	ldi	r19, 0xFF	; 255
    37b0:	4f e7       	ldi	r20, 0x7F	; 127
    37b2:	57 e4       	ldi	r21, 0x47	; 71
    37b4:	0e 94 19 03 	call	0x632	; 0x632 <__gtsf2>
    37b8:	18 16       	cp	r1, r24
    37ba:	4c f5       	brge	.+82     	; 0x380e <LCD_enuWriteNLatch+0x7a0>
	{
		//	__ticks = requested delay in 1/10 ms
		__ticks = (uint16_t) (__ms * 10.0);
    37bc:	6b 85       	ldd	r22, Y+11	; 0x0b
    37be:	7c 85       	ldd	r23, Y+12	; 0x0c
    37c0:	8d 85       	ldd	r24, Y+13	; 0x0d
    37c2:	9e 85       	ldd	r25, Y+14	; 0x0e
    37c4:	20 e0       	ldi	r18, 0x00	; 0
    37c6:	30 e0       	ldi	r19, 0x00	; 0
    37c8:	40 e2       	ldi	r20, 0x20	; 32
    37ca:	51 e4       	ldi	r21, 0x41	; 65
    37cc:	0e 94 1f 02 	call	0x43e	; 0x43e <__mulsf3>
    37d0:	dc 01       	movw	r26, r24
    37d2:	cb 01       	movw	r24, r22
    37d4:	bc 01       	movw	r22, r24
    37d6:	cd 01       	movw	r24, r26
    37d8:	0e 94 49 00 	call	0x92	; 0x92 <__fixunssfsi>
    37dc:	dc 01       	movw	r26, r24
    37de:	cb 01       	movw	r24, r22
    37e0:	9e 83       	std	Y+6, r25	; 0x06
    37e2:	8d 83       	std	Y+5, r24	; 0x05
    37e4:	0f c0       	rjmp	.+30     	; 0x3804 <LCD_enuWriteNLatch+0x796>
    37e6:	80 e9       	ldi	r24, 0x90	; 144
    37e8:	91 e0       	ldi	r25, 0x01	; 1
    37ea:	9c 83       	std	Y+4, r25	; 0x04
    37ec:	8b 83       	std	Y+3, r24	; 0x03
    37ee:	8b 81       	ldd	r24, Y+3	; 0x03
    37f0:	9c 81       	ldd	r25, Y+4	; 0x04
    37f2:	01 97       	sbiw	r24, 0x01	; 1
    37f4:	f1 f7       	brne	.-4      	; 0x37f2 <LCD_enuWriteNLatch+0x784>
    37f6:	9c 83       	std	Y+4, r25	; 0x04
    37f8:	8b 83       	std	Y+3, r24	; 0x03
		while(__ticks)
		{
			// wait 1/10 ms
			_delay_loop_2(((F_CPU) / 4e3) / 10);
			__ticks --;
    37fa:	8d 81       	ldd	r24, Y+5	; 0x05
    37fc:	9e 81       	ldd	r25, Y+6	; 0x06
    37fe:	01 97       	sbiw	r24, 0x01	; 1
    3800:	9e 83       	std	Y+6, r25	; 0x06
    3802:	8d 83       	std	Y+5, r24	; 0x05
		__ticks = 1;
	else if (__tmp > 65535)
	{
		//	__ticks = requested delay in 1/10 ms
		__ticks = (uint16_t) (__ms * 10.0);
		while(__ticks)
    3804:	8d 81       	ldd	r24, Y+5	; 0x05
    3806:	9e 81       	ldd	r25, Y+6	; 0x06
    3808:	00 97       	sbiw	r24, 0x00	; 0
    380a:	69 f7       	brne	.-38     	; 0x37e6 <LCD_enuWriteNLatch+0x778>
    380c:	14 c0       	rjmp	.+40     	; 0x3836 <LCD_enuWriteNLatch+0x7c8>
			__ticks --;
		}
		return;
	}
	else
		__ticks = (uint16_t)__tmp;
    380e:	6f 81       	ldd	r22, Y+7	; 0x07
    3810:	78 85       	ldd	r23, Y+8	; 0x08
    3812:	89 85       	ldd	r24, Y+9	; 0x09
    3814:	9a 85       	ldd	r25, Y+10	; 0x0a
    3816:	0e 94 49 00 	call	0x92	; 0x92 <__fixunssfsi>
    381a:	dc 01       	movw	r26, r24
    381c:	cb 01       	movw	r24, r22
    381e:	9e 83       	std	Y+6, r25	; 0x06
    3820:	8d 83       	std	Y+5, r24	; 0x05
    3822:	8d 81       	ldd	r24, Y+5	; 0x05
    3824:	9e 81       	ldd	r25, Y+6	; 0x06
    3826:	9a 83       	std	Y+2, r25	; 0x02
    3828:	89 83       	std	Y+1, r24	; 0x01
    382a:	89 81       	ldd	r24, Y+1	; 0x01
    382c:	9a 81       	ldd	r25, Y+2	; 0x02
    382e:	01 97       	sbiw	r24, 0x01	; 1
    3830:	f1 f7       	brne	.-4      	; 0x382e <LCD_enuWriteNLatch+0x7c0>
    3832:	9a 83       	std	Y+2, r25	; 0x02
    3834:	89 83       	std	Y+1, r24	; 0x01
#else
#error"LCD mode is wrong"
#endif


	return Local_u8ErrorState;
    3836:	fe 01       	movw	r30, r28
    3838:	eb 5a       	subi	r30, 0xAB	; 171
    383a:	ff 4f       	sbci	r31, 0xFF	; 255
    383c:	80 81       	ld	r24, Z
}
    383e:	ca 5a       	subi	r28, 0xAA	; 170
    3840:	df 4f       	sbci	r29, 0xFF	; 255
    3842:	0f b6       	in	r0, 0x3f	; 63
    3844:	f8 94       	cli
    3846:	de bf       	out	0x3e, r29	; 62
    3848:	0f be       	out	0x3f, r0	; 63
    384a:	cd bf       	out	0x3d, r28	; 61
    384c:	cf 91       	pop	r28
    384e:	df 91       	pop	r29
    3850:	1f 91       	pop	r17
    3852:	0f 91       	pop	r16
    3854:	08 95       	ret

00003856 <LCD_DisplayUser>:
void LCD_DisplayUser(void)
{
    3856:	df 93       	push	r29
    3858:	cf 93       	push	r28
    385a:	0f 92       	push	r0
    385c:	cd b7       	in	r28, 0x3d	; 61
    385e:	de b7       	in	r29, 0x3e	; 62
	u8 key;

	Keypad_enuGetPressedKey(&key);
    3860:	ce 01       	movw	r24, r28
    3862:	01 96       	adiw	r24, 0x01	; 1
    3864:	0e 94 01 14 	call	0x2802	; 0x2802 <Keypad_enuGetPressedKey>

	if (key != KEYPAD_NOT_PRESSED)
    3868:	89 81       	ldd	r24, Y+1	; 0x01
    386a:	8f 3f       	cpi	r24, 0xFF	; 255
    386c:	19 f0       	breq	.+6      	; 0x3874 <LCD_DisplayUser+0x1e>
	{
		LCD_enuSendData(key);
    386e:	89 81       	ldd	r24, Y+1	; 0x01
    3870:	0e 94 e7 17 	call	0x2fce	; 0x2fce <LCD_enuSendData>
	}
}
    3874:	0f 90       	pop	r0
    3876:	cf 91       	pop	r28
    3878:	df 91       	pop	r29
    387a:	08 95       	ret

0000387c <LCD_ClearDisplay>:
void LCD_ClearDisplay(void)
{
    387c:	df 93       	push	r29
    387e:	cf 93       	push	r28
    3880:	cd b7       	in	r28, 0x3d	; 61
    3882:	de b7       	in	r29, 0x3e	; 62
	DIO_enuSetPinValue(RS_PORT,RS_PIN,DIO_u8LOW);
    3884:	81 e0       	ldi	r24, 0x01	; 1
    3886:	61 e0       	ldi	r22, 0x01	; 1
    3888:	40 e0       	ldi	r20, 0x00	; 0
    388a:	0e 94 8a 08 	call	0x1114	; 0x1114 <DIO_enuSetPinValue>
	LCD_enuWriteNLatch(0x01);
    388e:	81 e0       	ldi	r24, 0x01	; 1
    3890:	0e 94 37 18 	call	0x306e	; 0x306e <LCD_enuWriteNLatch>
}
    3894:	cf 91       	pop	r28
    3896:	df 91       	pop	r29
    3898:	08 95       	ret

0000389a <LCD_DisplayPassword>:

void LCD_DisplayPassword()
{
    389a:	df 93       	push	r29
    389c:	cf 93       	push	r28
    389e:	00 d0       	rcall	.+0      	; 0x38a0 <LCD_DisplayPassword+0x6>
    38a0:	cd b7       	in	r28, 0x3d	; 61
    38a2:	de b7       	in	r29, 0x3e	; 62
		u8 key,i;
		for(i=0;i<4;i++)
    38a4:	19 82       	std	Y+1, r1	; 0x01
    38a6:	0f c0       	rjmp	.+30     	; 0x38c6 <LCD_DisplayPassword+0x2c>
		{
			Keypad_enuGetPressedKey(&key);
    38a8:	ce 01       	movw	r24, r28
    38aa:	02 96       	adiw	r24, 0x02	; 2
    38ac:	0e 94 01 14 	call	0x2802	; 0x2802 <Keypad_enuGetPressedKey>
			if (key != KEYPAD_NOT_PRESSED)
    38b0:	8a 81       	ldd	r24, Y+2	; 0x02
    38b2:	8f 3f       	cpi	r24, 0xFF	; 255
    38b4:	29 f0       	breq	.+10     	; 0x38c0 <LCD_DisplayPassword+0x26>
			{
	 	            key = '*';
    38b6:	8a e2       	ldi	r24, 0x2A	; 42
    38b8:	8a 83       	std	Y+2, r24	; 0x02
					LCD_enuSendData(key);
    38ba:	8a 81       	ldd	r24, Y+2	; 0x02
    38bc:	0e 94 e7 17 	call	0x2fce	; 0x2fce <LCD_enuSendData>
}

void LCD_DisplayPassword()
{
		u8 key,i;
		for(i=0;i<4;i++)
    38c0:	89 81       	ldd	r24, Y+1	; 0x01
    38c2:	8f 5f       	subi	r24, 0xFF	; 255
    38c4:	89 83       	std	Y+1, r24	; 0x01
    38c6:	89 81       	ldd	r24, Y+1	; 0x01
    38c8:	84 30       	cpi	r24, 0x04	; 4
    38ca:	70 f3       	brcs	.-36     	; 0x38a8 <LCD_DisplayPassword+0xe>
	 	            key = '*';
					LCD_enuSendData(key);
			}
		}

}
    38cc:	0f 90       	pop	r0
    38ce:	0f 90       	pop	r0
    38d0:	cf 91       	pop	r28
    38d2:	df 91       	pop	r29
    38d4:	08 95       	ret

000038d6 <leds_vON>:
#include "util/delay.h"


/* choosing led to turn it on*/
void leds_vON(void)
{
    38d6:	df 93       	push	r29
    38d8:	cf 93       	push	r28
    38da:	cd b7       	in	r28, 0x3d	; 61
    38dc:	de b7       	in	r29, 0x3e	; 62
		DIO_enuSetPinDirection(DIO_u8GROUP_A, DIO_u8PIN2, DIO_u8OUTPUT);
    38de:	80 e0       	ldi	r24, 0x00	; 0
    38e0:	62 e0       	ldi	r22, 0x02	; 2
    38e2:	41 e0       	ldi	r20, 0x01	; 1
    38e4:	0e 94 9e 07 	call	0xf3c	; 0xf3c <DIO_enuSetPinDirection>
		DIO_enuSetPinValue(DIO_u8GROUP_A,DIO_u8PIN2,DIO_u8HIGH);
    38e8:	80 e0       	ldi	r24, 0x00	; 0
    38ea:	62 e0       	ldi	r22, 0x02	; 2
    38ec:	41 e0       	ldi	r20, 0x01	; 1
    38ee:	0e 94 8a 08 	call	0x1114	; 0x1114 <DIO_enuSetPinValue>

		DIO_enuSetPinDirection(DIO_u8GROUP_A, DIO_u8PIN3, DIO_u8OUTPUT);
    38f2:	80 e0       	ldi	r24, 0x00	; 0
    38f4:	63 e0       	ldi	r22, 0x03	; 3
    38f6:	41 e0       	ldi	r20, 0x01	; 1
    38f8:	0e 94 9e 07 	call	0xf3c	; 0xf3c <DIO_enuSetPinDirection>
		DIO_enuSetPinValue(DIO_u8GROUP_A,DIO_u8PIN3,DIO_u8HIGH);
    38fc:	80 e0       	ldi	r24, 0x00	; 0
    38fe:	63 e0       	ldi	r22, 0x03	; 3
    3900:	41 e0       	ldi	r20, 0x01	; 1
    3902:	0e 94 8a 08 	call	0x1114	; 0x1114 <DIO_enuSetPinValue>

		DIO_enuSetPinDirection(DIO_u8GROUP_D, DIO_u8PIN2, DIO_u8OUTPUT);
    3906:	83 e0       	ldi	r24, 0x03	; 3
    3908:	62 e0       	ldi	r22, 0x02	; 2
    390a:	41 e0       	ldi	r20, 0x01	; 1
    390c:	0e 94 9e 07 	call	0xf3c	; 0xf3c <DIO_enuSetPinDirection>
		DIO_enuSetPinValue(DIO_u8GROUP_D,DIO_u8PIN2,DIO_u8HIGH);
    3910:	83 e0       	ldi	r24, 0x03	; 3
    3912:	62 e0       	ldi	r22, 0x02	; 2
    3914:	41 e0       	ldi	r20, 0x01	; 1
    3916:	0e 94 8a 08 	call	0x1114	; 0x1114 <DIO_enuSetPinValue>

		DIO_enuSetPinDirection(DIO_u8GROUP_C, DIO_u8PIN2, DIO_u8OUTPUT);
    391a:	82 e0       	ldi	r24, 0x02	; 2
    391c:	62 e0       	ldi	r22, 0x02	; 2
    391e:	41 e0       	ldi	r20, 0x01	; 1
    3920:	0e 94 9e 07 	call	0xf3c	; 0xf3c <DIO_enuSetPinDirection>
		DIO_enuSetPinValue(DIO_u8GROUP_C,DIO_u8PIN2,DIO_u8HIGH);
    3924:	82 e0       	ldi	r24, 0x02	; 2
    3926:	62 e0       	ldi	r22, 0x02	; 2
    3928:	41 e0       	ldi	r20, 0x01	; 1
    392a:	0e 94 8a 08 	call	0x1114	; 0x1114 <DIO_enuSetPinValue>

		DIO_enuSetPinDirection(DIO_u8GROUP_D, DIO_u8PIN6, DIO_u8OUTPUT);
    392e:	83 e0       	ldi	r24, 0x03	; 3
    3930:	66 e0       	ldi	r22, 0x06	; 6
    3932:	41 e0       	ldi	r20, 0x01	; 1
    3934:	0e 94 9e 07 	call	0xf3c	; 0xf3c <DIO_enuSetPinDirection>
		DIO_enuSetPinValue(DIO_u8GROUP_D,DIO_u8PIN6,DIO_u8HIGH);
    3938:	83 e0       	ldi	r24, 0x03	; 3
    393a:	66 e0       	ldi	r22, 0x06	; 6
    393c:	41 e0       	ldi	r20, 0x01	; 1
    393e:	0e 94 8a 08 	call	0x1114	; 0x1114 <DIO_enuSetPinValue>
}
    3942:	cf 91       	pop	r28
    3944:	df 91       	pop	r29
    3946:	08 95       	ret

00003948 <leds_vOFF>:


/* choosing led to turn it off*/
void leds_vOFF(void)
{
    3948:	df 93       	push	r29
    394a:	cf 93       	push	r28
    394c:	cd b7       	in	r28, 0x3d	; 61
    394e:	de b7       	in	r29, 0x3e	; 62
		DIO_enuSetPinDirection(DIO_u8GROUP_A, DIO_u8PIN2, DIO_u8OUTPUT);
    3950:	80 e0       	ldi	r24, 0x00	; 0
    3952:	62 e0       	ldi	r22, 0x02	; 2
    3954:	41 e0       	ldi	r20, 0x01	; 1
    3956:	0e 94 9e 07 	call	0xf3c	; 0xf3c <DIO_enuSetPinDirection>
		DIO_enuSetPinValue(DIO_u8GROUP_A,DIO_u8PIN2,DIO_u8LOW);
    395a:	80 e0       	ldi	r24, 0x00	; 0
    395c:	62 e0       	ldi	r22, 0x02	; 2
    395e:	40 e0       	ldi	r20, 0x00	; 0
    3960:	0e 94 8a 08 	call	0x1114	; 0x1114 <DIO_enuSetPinValue>

		DIO_enuSetPinDirection(DIO_u8GROUP_A, DIO_u8PIN3, DIO_u8OUTPUT);
    3964:	80 e0       	ldi	r24, 0x00	; 0
    3966:	63 e0       	ldi	r22, 0x03	; 3
    3968:	41 e0       	ldi	r20, 0x01	; 1
    396a:	0e 94 9e 07 	call	0xf3c	; 0xf3c <DIO_enuSetPinDirection>
		DIO_enuSetPinValue(DIO_u8GROUP_A,DIO_u8PIN3,DIO_u8LOW);
    396e:	80 e0       	ldi	r24, 0x00	; 0
    3970:	63 e0       	ldi	r22, 0x03	; 3
    3972:	40 e0       	ldi	r20, 0x00	; 0
    3974:	0e 94 8a 08 	call	0x1114	; 0x1114 <DIO_enuSetPinValue>

		DIO_enuSetPinDirection(DIO_u8GROUP_D, DIO_u8PIN2, DIO_u8OUTPUT);
    3978:	83 e0       	ldi	r24, 0x03	; 3
    397a:	62 e0       	ldi	r22, 0x02	; 2
    397c:	41 e0       	ldi	r20, 0x01	; 1
    397e:	0e 94 9e 07 	call	0xf3c	; 0xf3c <DIO_enuSetPinDirection>
		DIO_enuSetPinValue(DIO_u8GROUP_D,DIO_u8PIN2,DIO_u8LOW);
    3982:	83 e0       	ldi	r24, 0x03	; 3
    3984:	62 e0       	ldi	r22, 0x02	; 2
    3986:	40 e0       	ldi	r20, 0x00	; 0
    3988:	0e 94 8a 08 	call	0x1114	; 0x1114 <DIO_enuSetPinValue>

		DIO_enuSetPinDirection(DIO_u8GROUP_C, DIO_u8PIN2, DIO_u8OUTPUT);
    398c:	82 e0       	ldi	r24, 0x02	; 2
    398e:	62 e0       	ldi	r22, 0x02	; 2
    3990:	41 e0       	ldi	r20, 0x01	; 1
    3992:	0e 94 9e 07 	call	0xf3c	; 0xf3c <DIO_enuSetPinDirection>
		DIO_enuSetPinValue(DIO_u8GROUP_C,DIO_u8PIN2,DIO_u8LOW);
    3996:	82 e0       	ldi	r24, 0x02	; 2
    3998:	62 e0       	ldi	r22, 0x02	; 2
    399a:	40 e0       	ldi	r20, 0x00	; 0
    399c:	0e 94 8a 08 	call	0x1114	; 0x1114 <DIO_enuSetPinValue>

		DIO_enuSetPinDirection(DIO_u8GROUP_D, DIO_u8PIN6, DIO_u8OUTPUT);
    39a0:	83 e0       	ldi	r24, 0x03	; 3
    39a2:	66 e0       	ldi	r22, 0x06	; 6
    39a4:	41 e0       	ldi	r20, 0x01	; 1
    39a6:	0e 94 9e 07 	call	0xf3c	; 0xf3c <DIO_enuSetPinDirection>
		DIO_enuSetPinValue(DIO_u8GROUP_D,DIO_u8PIN6,DIO_u8LOW);
    39aa:	83 e0       	ldi	r24, 0x03	; 3
    39ac:	66 e0       	ldi	r22, 0x06	; 6
    39ae:	40 e0       	ldi	r20, 0x00	; 0
    39b0:	0e 94 8a 08 	call	0x1114	; 0x1114 <DIO_enuSetPinValue>
}
    39b4:	cf 91       	pop	r28
    39b6:	df 91       	pop	r29
    39b8:	08 95       	ret

000039ba <buzzer_vON>:


/*turn on buzzer*/
void buzzer_vON(void)
{
    39ba:	df 93       	push	r29
    39bc:	cf 93       	push	r28
    39be:	cd b7       	in	r28, 0x3d	; 61
    39c0:	de b7       	in	r29, 0x3e	; 62
	DIO_enuSetPinDirection(DIO_u8GROUP_D, DIO_u8PIN7, DIO_u8OUTPUT);
    39c2:	83 e0       	ldi	r24, 0x03	; 3
    39c4:	67 e0       	ldi	r22, 0x07	; 7
    39c6:	41 e0       	ldi	r20, 0x01	; 1
    39c8:	0e 94 9e 07 	call	0xf3c	; 0xf3c <DIO_enuSetPinDirection>
	DIO_enuSetPinValue(DIO_u8GROUP_D,DIO_u8PIN7,DIO_u8HIGH);
    39cc:	83 e0       	ldi	r24, 0x03	; 3
    39ce:	67 e0       	ldi	r22, 0x07	; 7
    39d0:	41 e0       	ldi	r20, 0x01	; 1
    39d2:	0e 94 8a 08 	call	0x1114	; 0x1114 <DIO_enuSetPinValue>
}
    39d6:	cf 91       	pop	r28
    39d8:	df 91       	pop	r29
    39da:	08 95       	ret

000039dc <buzzer_vOFF>:


/*turn off buzzer*/
void buzzer_vOFF(void)
{
    39dc:	df 93       	push	r29
    39de:	cf 93       	push	r28
    39e0:	cd b7       	in	r28, 0x3d	; 61
    39e2:	de b7       	in	r29, 0x3e	; 62
	DIO_enuSetPinDirection(DIO_u8GROUP_D, DIO_u8PIN7, DIO_u8OUTPUT);
    39e4:	83 e0       	ldi	r24, 0x03	; 3
    39e6:	67 e0       	ldi	r22, 0x07	; 7
    39e8:	41 e0       	ldi	r20, 0x01	; 1
    39ea:	0e 94 9e 07 	call	0xf3c	; 0xf3c <DIO_enuSetPinDirection>
	DIO_enuSetPinValue(DIO_u8GROUP_D,DIO_u8PIN7,DIO_u8LOW);
    39ee:	83 e0       	ldi	r24, 0x03	; 3
    39f0:	67 e0       	ldi	r22, 0x07	; 7
    39f2:	40 e0       	ldi	r20, 0x00	; 0
    39f4:	0e 94 8a 08 	call	0x1114	; 0x1114 <DIO_enuSetPinValue>
}
    39f8:	cf 91       	pop	r28
    39fa:	df 91       	pop	r29
    39fc:	08 95       	ret

000039fe <Remote_Init>:
#include "../MCAL/USART_Config.h"
#include "../MCAL/USART_Private.h"
#include "../MCAL/stdTypes.h"
#include "../MCAL/AVR_REG.h"
void Remote_Init()
{
    39fe:	df 93       	push	r29
    3a00:	cf 93       	push	r28
    3a02:	cd b7       	in	r28, 0x3d	; 61
    3a04:	de b7       	in	r29, 0x3e	; 62
	  USART_Init(Asynch_Noraml_Mode,DISABLE,1,8);
    3a06:	81 e0       	ldi	r24, 0x01	; 1
    3a08:	90 e0       	ldi	r25, 0x00	; 0
    3a0a:	60 e0       	ldi	r22, 0x00	; 0
    3a0c:	70 e0       	ldi	r23, 0x00	; 0
    3a0e:	41 e0       	ldi	r20, 0x01	; 1
    3a10:	50 e0       	ldi	r21, 0x00	; 0
    3a12:	28 e0       	ldi	r18, 0x08	; 8
    3a14:	30 e0       	ldi	r19, 0x00	; 0
    3a16:	0e 94 fa 0d 	call	0x1bf4	; 0x1bf4 <USART_Init>
	  USART_Baud_Rate();
    3a1a:	0e 94 41 0f 	call	0x1e82	; 0x1e82 <USART_Baud_Rate>
	  USART_RX_Enabel();
    3a1e:	0e 94 fb 0e 	call	0x1df6	; 0x1df6 <USART_RX_Enabel>
	  USART_TX_Enabel();
    3a22:	0e 94 ed 0e 	call	0x1dda	; 0x1dda <USART_TX_Enabel>
	  USART_RX_IE();
    3a26:	0e 94 17 0f 	call	0x1e2e	; 0x1e2e <USART_RX_IE>
	  USART_Send_String("PRESS ANY KEY TO START\r\n");
    3a2a:	80 e6       	ldi	r24, 0x60	; 96
    3a2c:	90 e0       	ldi	r25, 0x00	; 0
    3a2e:	0e 94 78 0f 	call	0x1ef0	; 0x1ef0 <USART_Send_String>


}
    3a32:	cf 91       	pop	r28
    3a34:	df 91       	pop	r29
    3a36:	08 95       	ret

00003a38 <Remote_Typing>:
void Remote_Typing(u8 *User_ID,u8 Str_Size,u8 State)            /*Shows the characters that the user is typing and saving it in the same time*/
{
    3a38:	df 93       	push	r29
    3a3a:	cf 93       	push	r28
    3a3c:	00 d0       	rcall	.+0      	; 0x3a3e <Remote_Typing+0x6>
    3a3e:	00 d0       	rcall	.+0      	; 0x3a40 <Remote_Typing+0x8>
    3a40:	00 d0       	rcall	.+0      	; 0x3a42 <Remote_Typing+0xa>
    3a42:	cd b7       	in	r28, 0x3d	; 61
    3a44:	de b7       	in	r29, 0x3e	; 62
    3a46:	9c 83       	std	Y+4, r25	; 0x04
    3a48:	8b 83       	std	Y+3, r24	; 0x03
    3a4a:	6d 83       	std	Y+5, r22	; 0x05
    3a4c:	4e 83       	std	Y+6, r20	; 0x06
	u8 i,Writing;
	if(State==1)
    3a4e:	8e 81       	ldd	r24, Y+6	; 0x06
    3a50:	81 30       	cpi	r24, 0x01	; 1
    3a52:	d9 f4       	brne	.+54     	; 0x3a8a <Remote_Typing+0x52>
	{
	for(i=0;i<Str_Size;i++)
    3a54:	1a 82       	std	Y+2, r1	; 0x02
    3a56:	14 c0       	rjmp	.+40     	; 0x3a80 <Remote_Typing+0x48>
	{
		Writing=USART_Recive_Char();
    3a58:	0e 94 69 0f 	call	0x1ed2	; 0x1ed2 <USART_Recive_Char>
    3a5c:	89 83       	std	Y+1, r24	; 0x01
		USART_Send_Char('*');
    3a5e:	8a e2       	ldi	r24, 0x2A	; 42
    3a60:	90 e0       	ldi	r25, 0x00	; 0
    3a62:	0e 94 4f 0f 	call	0x1e9e	; 0x1e9e <USART_Send_Char>
		User_ID[i]=Writing;
    3a66:	8a 81       	ldd	r24, Y+2	; 0x02
    3a68:	28 2f       	mov	r18, r24
    3a6a:	30 e0       	ldi	r19, 0x00	; 0
    3a6c:	8b 81       	ldd	r24, Y+3	; 0x03
    3a6e:	9c 81       	ldd	r25, Y+4	; 0x04
    3a70:	fc 01       	movw	r30, r24
    3a72:	e2 0f       	add	r30, r18
    3a74:	f3 1f       	adc	r31, r19
    3a76:	89 81       	ldd	r24, Y+1	; 0x01
    3a78:	80 83       	st	Z, r24
void Remote_Typing(u8 *User_ID,u8 Str_Size,u8 State)            /*Shows the characters that the user is typing and saving it in the same time*/
{
	u8 i,Writing;
	if(State==1)
	{
	for(i=0;i<Str_Size;i++)
    3a7a:	8a 81       	ldd	r24, Y+2	; 0x02
    3a7c:	8f 5f       	subi	r24, 0xFF	; 255
    3a7e:	8a 83       	std	Y+2, r24	; 0x02
    3a80:	9a 81       	ldd	r25, Y+2	; 0x02
    3a82:	8d 81       	ldd	r24, Y+5	; 0x05
    3a84:	98 17       	cp	r25, r24
    3a86:	40 f3       	brcs	.-48     	; 0x3a58 <Remote_Typing+0x20>
    3a88:	1e c0       	rjmp	.+60     	; 0x3ac6 <Remote_Typing+0x8e>
		Writing=USART_Recive_Char();
		USART_Send_Char('*');
		User_ID[i]=Writing;
	}
	}
	else if(State== 0)
    3a8a:	8e 81       	ldd	r24, Y+6	; 0x06
    3a8c:	88 23       	and	r24, r24
    3a8e:	d9 f4       	brne	.+54     	; 0x3ac6 <Remote_Typing+0x8e>
	{
		for(i=0;i<Str_Size;i++)
    3a90:	1a 82       	std	Y+2, r1	; 0x02
    3a92:	15 c0       	rjmp	.+42     	; 0x3abe <Remote_Typing+0x86>
		{
			Writing=USART_Recive_Char();
    3a94:	0e 94 69 0f 	call	0x1ed2	; 0x1ed2 <USART_Recive_Char>
    3a98:	89 83       	std	Y+1, r24	; 0x01
			USART_Send_Char(Writing);
    3a9a:	89 81       	ldd	r24, Y+1	; 0x01
    3a9c:	88 2f       	mov	r24, r24
    3a9e:	90 e0       	ldi	r25, 0x00	; 0
    3aa0:	0e 94 4f 0f 	call	0x1e9e	; 0x1e9e <USART_Send_Char>
			User_ID[i]=Writing;
    3aa4:	8a 81       	ldd	r24, Y+2	; 0x02
    3aa6:	28 2f       	mov	r18, r24
    3aa8:	30 e0       	ldi	r19, 0x00	; 0
    3aaa:	8b 81       	ldd	r24, Y+3	; 0x03
    3aac:	9c 81       	ldd	r25, Y+4	; 0x04
    3aae:	fc 01       	movw	r30, r24
    3ab0:	e2 0f       	add	r30, r18
    3ab2:	f3 1f       	adc	r31, r19
    3ab4:	89 81       	ldd	r24, Y+1	; 0x01
    3ab6:	80 83       	st	Z, r24
		User_ID[i]=Writing;
	}
	}
	else if(State== 0)
	{
		for(i=0;i<Str_Size;i++)
    3ab8:	8a 81       	ldd	r24, Y+2	; 0x02
    3aba:	8f 5f       	subi	r24, 0xFF	; 255
    3abc:	8a 83       	std	Y+2, r24	; 0x02
    3abe:	9a 81       	ldd	r25, Y+2	; 0x02
    3ac0:	8d 81       	ldd	r24, Y+5	; 0x05
    3ac2:	98 17       	cp	r25, r24
    3ac4:	38 f3       	brcs	.-50     	; 0x3a94 <Remote_Typing+0x5c>
			USART_Send_Char(Writing);
			User_ID[i]=Writing;
		}
	}

}
    3ac6:	26 96       	adiw	r28, 0x06	; 6
    3ac8:	0f b6       	in	r0, 0x3f	; 63
    3aca:	f8 94       	cli
    3acc:	de bf       	out	0x3e, r29	; 62
    3ace:	0f be       	out	0x3f, r0	; 63
    3ad0:	cd bf       	out	0x3d, r28	; 61
    3ad2:	cf 91       	pop	r28
    3ad4:	df 91       	pop	r29
    3ad6:	08 95       	ret

00003ad8 <Remote_Send_String>:
void Remote_Send_String(char *T_Data)                           /*Used to send massages or instructions to the user*/
{
    3ad8:	df 93       	push	r29
    3ada:	cf 93       	push	r28
    3adc:	00 d0       	rcall	.+0      	; 0x3ade <Remote_Send_String+0x6>
    3ade:	cd b7       	in	r28, 0x3d	; 61
    3ae0:	de b7       	in	r29, 0x3e	; 62
    3ae2:	9a 83       	std	Y+2, r25	; 0x02
    3ae4:	89 83       	std	Y+1, r24	; 0x01
	USART_Send_String(T_Data);
    3ae6:	89 81       	ldd	r24, Y+1	; 0x01
    3ae8:	9a 81       	ldd	r25, Y+2	; 0x02
    3aea:	0e 94 78 0f 	call	0x1ef0	; 0x1ef0 <USART_Send_String>
}
    3aee:	0f 90       	pop	r0
    3af0:	0f 90       	pop	r0
    3af2:	cf 91       	pop	r28
    3af4:	df 91       	pop	r29
    3af6:	08 95       	ret

00003af8 <Remote_New_Line>:
void Remote_New_Line(u8 Num_Line)                               /*Create New line*/
{
    3af8:	df 93       	push	r29
    3afa:	cf 93       	push	r28
    3afc:	00 d0       	rcall	.+0      	; 0x3afe <Remote_New_Line+0x6>
    3afe:	cd b7       	in	r28, 0x3d	; 61
    3b00:	de b7       	in	r29, 0x3e	; 62
    3b02:	8a 83       	std	Y+2, r24	; 0x02
	u8 i;
	for(i=0;i<Num_Line;i++)
    3b04:	19 82       	std	Y+1, r1	; 0x01
    3b06:	07 c0       	rjmp	.+14     	; 0x3b16 <Remote_New_Line+0x1e>
	{
	USART_Send_String("    \r\n");
    3b08:	89 e7       	ldi	r24, 0x79	; 121
    3b0a:	90 e0       	ldi	r25, 0x00	; 0
    3b0c:	0e 94 78 0f 	call	0x1ef0	; 0x1ef0 <USART_Send_String>
	USART_Send_String(T_Data);
}
void Remote_New_Line(u8 Num_Line)                               /*Create New line*/
{
	u8 i;
	for(i=0;i<Num_Line;i++)
    3b10:	89 81       	ldd	r24, Y+1	; 0x01
    3b12:	8f 5f       	subi	r24, 0xFF	; 255
    3b14:	89 83       	std	Y+1, r24	; 0x01
    3b16:	99 81       	ldd	r25, Y+1	; 0x01
    3b18:	8a 81       	ldd	r24, Y+2	; 0x02
    3b1a:	98 17       	cp	r25, r24
    3b1c:	a8 f3       	brcs	.-22     	; 0x3b08 <Remote_New_Line+0x10>
	{
	USART_Send_String("    \r\n");
	}

}
    3b1e:	0f 90       	pop	r0
    3b20:	0f 90       	pop	r0
    3b22:	cf 91       	pop	r28
    3b24:	df 91       	pop	r29
    3b26:	08 95       	ret

00003b28 <Remote_Display>:
void Remote_Display(u8 *T_Data,u8 Str_Size)                     /*Display User Information*/
{
    3b28:	df 93       	push	r29
    3b2a:	cf 93       	push	r28
    3b2c:	00 d0       	rcall	.+0      	; 0x3b2e <Remote_Display+0x6>
    3b2e:	00 d0       	rcall	.+0      	; 0x3b30 <Remote_Display+0x8>
    3b30:	cd b7       	in	r28, 0x3d	; 61
    3b32:	de b7       	in	r29, 0x3e	; 62
    3b34:	9b 83       	std	Y+3, r25	; 0x03
    3b36:	8a 83       	std	Y+2, r24	; 0x02
    3b38:	6c 83       	std	Y+4, r22	; 0x04
	u8 i;
	for(i=0 ;i<Str_Size;i++)
    3b3a:	19 82       	std	Y+1, r1	; 0x01
    3b3c:	1b c0       	rjmp	.+54     	; 0x3b74 <Remote_Display+0x4c>
		{
			while(!((UCSRA>>5)&1)); /*UDR Empty Register Method*/
    3b3e:	eb e2       	ldi	r30, 0x2B	; 43
    3b40:	f0 e0       	ldi	r31, 0x00	; 0
    3b42:	80 81       	ld	r24, Z
    3b44:	82 95       	swap	r24
    3b46:	86 95       	lsr	r24
    3b48:	87 70       	andi	r24, 0x07	; 7
    3b4a:	88 2f       	mov	r24, r24
    3b4c:	90 e0       	ldi	r25, 0x00	; 0
    3b4e:	81 70       	andi	r24, 0x01	; 1
    3b50:	90 70       	andi	r25, 0x00	; 0
    3b52:	00 97       	sbiw	r24, 0x00	; 0
    3b54:	a1 f3       	breq	.-24     	; 0x3b3e <Remote_Display+0x16>
			UDR = T_Data[i];
    3b56:	ac e2       	ldi	r26, 0x2C	; 44
    3b58:	b0 e0       	ldi	r27, 0x00	; 0
    3b5a:	89 81       	ldd	r24, Y+1	; 0x01
    3b5c:	28 2f       	mov	r18, r24
    3b5e:	30 e0       	ldi	r19, 0x00	; 0
    3b60:	8a 81       	ldd	r24, Y+2	; 0x02
    3b62:	9b 81       	ldd	r25, Y+3	; 0x03
    3b64:	fc 01       	movw	r30, r24
    3b66:	e2 0f       	add	r30, r18
    3b68:	f3 1f       	adc	r31, r19
    3b6a:	80 81       	ld	r24, Z
    3b6c:	8c 93       	st	X, r24

}
void Remote_Display(u8 *T_Data,u8 Str_Size)                     /*Display User Information*/
{
	u8 i;
	for(i=0 ;i<Str_Size;i++)
    3b6e:	89 81       	ldd	r24, Y+1	; 0x01
    3b70:	8f 5f       	subi	r24, 0xFF	; 255
    3b72:	89 83       	std	Y+1, r24	; 0x01
    3b74:	99 81       	ldd	r25, Y+1	; 0x01
    3b76:	8c 81       	ldd	r24, Y+4	; 0x04
    3b78:	98 17       	cp	r25, r24
    3b7a:	08 f3       	brcs	.-62     	; 0x3b3e <Remote_Display+0x16>
		{
			while(!((UCSRA>>5)&1)); /*UDR Empty Register Method*/
			UDR = T_Data[i];
		}
}
    3b7c:	0f 90       	pop	r0
    3b7e:	0f 90       	pop	r0
    3b80:	0f 90       	pop	r0
    3b82:	0f 90       	pop	r0
    3b84:	cf 91       	pop	r28
    3b86:	df 91       	pop	r29
    3b88:	08 95       	ret

00003b8a <Temp_Sens_Init>:
#include "../MCAL/ADC_Int.h"
#include "../MCAL/ADC_Config.h"
#include "AC_Int.h"
#include "LED_Buzzer_Int.h"
void Temp_Sens_Init()
{
    3b8a:	df 93       	push	r29
    3b8c:	cf 93       	push	r28
    3b8e:	cd b7       	in	r28, 0x3d	; 61
    3b90:	de b7       	in	r29, 0x3e	; 62
	 Analog_Select_Channel(0);
    3b92:	80 e0       	ldi	r24, 0x00	; 0
    3b94:	0e 94 05 07 	call	0xe0a	; 0xe0a <Analog_Select_Channel>
	 AD_Init(AVCC,64);
    3b98:	80 e0       	ldi	r24, 0x00	; 0
    3b9a:	60 e4       	ldi	r22, 0x40	; 64
    3b9c:	0e 94 a3 05 	call	0xb46	; 0xb46 <AD_Init>
}
    3ba0:	cf 91       	pop	r28
    3ba2:	df 91       	pop	r29
    3ba4:	08 95       	ret

00003ba6 <Temp_Sens_Read>:
u8 Temp_Sens_Read()
{
    3ba6:	df 93       	push	r29
    3ba8:	cf 93       	push	r28
    3baa:	0f 92       	push	r0
    3bac:	cd b7       	in	r28, 0x3d	; 61
    3bae:	de b7       	in	r29, 0x3e	; 62
	u8 Read;
	AD_Start_Conversion();
    3bb0:	0e 94 c9 06 	call	0xd92	; 0xd92 <AD_Start_Conversion>
	ADC_Polling();
    3bb4:	0e 94 62 07 	call	0xec4	; 0xec4 <ADC_Polling>
	Read=(AD_Read_High(LEFT_READING))*2;
    3bb8:	80 e0       	ldi	r24, 0x00	; 0
    3bba:	0e 94 21 07 	call	0xe42	; 0xe42 <AD_Read_High>
    3bbe:	88 2f       	mov	r24, r24
    3bc0:	90 e0       	ldi	r25, 0x00	; 0
    3bc2:	88 0f       	add	r24, r24
    3bc4:	99 1f       	adc	r25, r25
    3bc6:	89 83       	std	Y+1, r24	; 0x01
	return Read;
    3bc8:	89 81       	ldd	r24, Y+1	; 0x01
}
    3bca:	0f 90       	pop	r0
    3bcc:	cf 91       	pop	r28
    3bce:	df 91       	pop	r29
    3bd0:	08 95       	ret

00003bd2 <Temp_AC_Check>:
void Temp_AC_Check()
{
    3bd2:	df 93       	push	r29
    3bd4:	cf 93       	push	r28
    3bd6:	0f 92       	push	r0
    3bd8:	cd b7       	in	r28, 0x3d	; 61
    3bda:	de b7       	in	r29, 0x3e	; 62

	u8  Temperature;
	Temperature =Temp_Sens_Read();
    3bdc:	0e 94 d3 1d 	call	0x3ba6	; 0x3ba6 <Temp_Sens_Read>
    3be0:	89 83       	std	Y+1, r24	; 0x01
	if (Temperature > 28)
    3be2:	89 81       	ldd	r24, Y+1	; 0x01
    3be4:	8d 31       	cpi	r24, 0x1D	; 29
    3be6:	38 f0       	brcs	.+14     	; 0x3bf6 <Temp_AC_Check+0x24>
	{
	     AC_On();
    3be8:	0e 94 ed 0f 	call	0x1fda	; 0x1fda <AC_On>
	     LCD_enuSendString("AC_ON");
    3bec:	80 e8       	ldi	r24, 0x80	; 128
    3bee:	90 e0       	ldi	r25, 0x00	; 0
    3bf0:	0e 94 11 18 	call	0x3022	; 0x3022 <LCD_enuSendString>
    3bf4:	07 c0       	rjmp	.+14     	; 0x3c04 <Temp_AC_Check+0x32>
	}
	else if (Temperature < 21)
    3bf6:	89 81       	ldd	r24, Y+1	; 0x01
    3bf8:	85 31       	cpi	r24, 0x15	; 21
    3bfa:	20 f4       	brcc	.+8      	; 0x3c04 <Temp_AC_Check+0x32>
	{
		AC_Off();
    3bfc:	0e 94 f6 0f 	call	0x1fec	; 0x1fec <AC_Off>
		LCD_ClearDisplay();
    3c00:	0e 94 3e 1c 	call	0x387c	; 0x387c <LCD_ClearDisplay>
	}
	else;
}
    3c04:	0f 90       	pop	r0
    3c06:	cf 91       	pop	r28
    3c08:	df 91       	pop	r29
    3c0a:	08 95       	ret

00003c0c <main>:
static u8 Program_Check;
u8 User_Char[6]={'A','B','C','D','E','F'};
/***************************************************************************************************************************/

int main ()
{
    3c0c:	df 93       	push	r29
    3c0e:	cf 93       	push	r28
    3c10:	cd b7       	in	r28, 0x3d	; 61
    3c12:	de b7       	in	r29, 0x3e	; 62
    3c14:	e3 97       	sbiw	r28, 0x33	; 51
    3c16:	0f b6       	in	r0, 0x3f	; 63
    3c18:	f8 94       	cli
    3c1a:	de bf       	out	0x3e, r29	; 62
    3c1c:	0f be       	out	0x3f, r0	; 63
    3c1e:	cd bf       	out	0x3d, r28	; 61

	 /****************Variables Deceleration****************/
	u8 Data;                             /*Remote Control*/
	u8 Key_Check=0;                      /*KeyPad*/
    3c20:	1f 8a       	std	Y+23, r1	; 0x17
	u8 User_Num=0;                       /*For Login and Sign Up System*/
    3c22:	1d 8a       	std	Y+21, r1	; 0x15
	u8 User_Check ;                      /*For Login and Sign Up System*/
	u8 Admin_Check=1;                    /*For Login and Sign Up System*/
    3c24:	81 e0       	ldi	r24, 0x01	; 1
    3c26:	8b 8b       	std	Y+19, r24	; 0x13
	u8 Trial_Number=0;                   /*For Login and Sign Up System*/
    3c28:	1a 8a       	std	Y+18, r1	; 0x12
	u8 Add_Num=0;                        /*For UserName and Password Address*/
    3c2a:	19 8a       	std	Y+17, r1	; 0x11
	u8 Em_Add_Num=0;                     /*For Emergency Address*/
    3c2c:	18 8a       	std	Y+16, r1	; 0x10
	u8 Memo_Data[8];                     /*Memory*/
	u8 UserName[8];                      /*Remote Control*/
	u8 PassWord[8];                      /*Remote Control*/
	u8 Emergency[4];                     /*Remote Control*/
/***********************************************************************************************************************/
	Peripherals_Init();                  /*Function Initialization Deceleration*/
    3c2e:	0e 94 d6 21 	call	0x43ac	; 0x43ac <Peripherals_Init>
   	while (1)
	{
   		   Temp_AC_Check();
    3c32:	0e 94 e9 1d 	call	0x3bd2	; 0x3bd2 <Temp_AC_Check>
/*************************************************************************************************************************************/
/********************************************************REMOTE SYSTEM PROGRAM********************************************************/
/*************************************************************************************************************************************/
			if (Program_Check == REMOTE)
    3c36:	80 91 30 04 	lds	r24, 0x0430
    3c3a:	81 30       	cpi	r24, 0x01	; 1
    3c3c:	09 f0       	breq	.+2      	; 0x3c40 <main+0x34>
    3c3e:	d0 c2       	rjmp	.+1440   	; 0x41e0 <main+0x5d4>
				{
			      USART_Send_String("****************HI****************\r\n");
    3c40:	86 e8       	ldi	r24, 0x86	; 134
    3c42:	90 e0       	ldi	r25, 0x00	; 0
    3c44:	0e 94 78 0f 	call	0x1ef0	; 0x1ef0 <USART_Send_String>
				  USART_Send_String("Welcome to Controlling Your Home\r\n");
    3c48:	8b ea       	ldi	r24, 0xAB	; 171
    3c4a:	90 e0       	ldi	r25, 0x00	; 0
    3c4c:	0e 94 78 0f 	call	0x1ef0	; 0x1ef0 <USART_Send_String>
				  Remote_New_Line(2);
    3c50:	82 e0       	ldi	r24, 0x02	; 2
    3c52:	90 e0       	ldi	r25, 0x00	; 0
    3c54:	0e 94 7c 1d 	call	0x3af8	; 0x3af8 <Remote_New_Line>
			    	/******************* SIGN_UP OF ADMIN *******************/
			            if(User_Num==0)
    3c58:	8d 89       	ldd	r24, Y+21	; 0x15
    3c5a:	88 23       	and	r24, r24
    3c5c:	09 f0       	breq	.+2      	; 0x3c60 <main+0x54>
    3c5e:	c6 c0       	rjmp	.+396    	; 0x3dec <main+0x1e0>
			            {
			            	do{
			            	Temp_AC_Check();
    3c60:	0e 94 e9 1d 	call	0x3bd2	; 0x3bd2 <Temp_AC_Check>
			        		Remote_Send_String("Please Enter Admin UserName\r\n");
    3c64:	8e ec       	ldi	r24, 0xCE	; 206
    3c66:	90 e0       	ldi	r25, 0x00	; 0
    3c68:	0e 94 6c 1d 	call	0x3ad8	; 0x3ad8 <Remote_Send_String>
			        		Remote_Typing(UserName,8,SHOWN);
    3c6c:	ce 01       	movw	r24, r28
    3c6e:	80 96       	adiw	r24, 0x20	; 32
    3c70:	68 e0       	ldi	r22, 0x08	; 8
    3c72:	70 e0       	ldi	r23, 0x00	; 0
    3c74:	40 e0       	ldi	r20, 0x00	; 0
    3c76:	50 e0       	ldi	r21, 0x00	; 0
    3c78:	0e 94 1c 1d 	call	0x3a38	; 0x3a38 <Remote_Typing>
			        		Remote_New_Line(1);
    3c7c:	81 e0       	ldi	r24, 0x01	; 1
    3c7e:	90 e0       	ldi	r25, 0x00	; 0
    3c80:	0e 94 7c 1d 	call	0x3af8	; 0x3af8 <Remote_New_Line>
			        		Remote_Send_String("Please Enter Admin PassWord\r\n");
    3c84:	8c ee       	ldi	r24, 0xEC	; 236
    3c86:	90 e0       	ldi	r25, 0x00	; 0
    3c88:	0e 94 6c 1d 	call	0x3ad8	; 0x3ad8 <Remote_Send_String>
			        		Remote_Typing(PassWord,8,SHOWN);
    3c8c:	ce 01       	movw	r24, r28
    3c8e:	88 96       	adiw	r24, 0x28	; 40
    3c90:	68 e0       	ldi	r22, 0x08	; 8
    3c92:	70 e0       	ldi	r23, 0x00	; 0
    3c94:	40 e0       	ldi	r20, 0x00	; 0
    3c96:	50 e0       	ldi	r21, 0x00	; 0
    3c98:	0e 94 1c 1d 	call	0x3a38	; 0x3a38 <Remote_Typing>
			        		Remote_New_Line(2);
    3c9c:	82 e0       	ldi	r24, 0x02	; 2
    3c9e:	90 e0       	ldi	r25, 0x00	; 0
    3ca0:	0e 94 7c 1d 	call	0x3af8	; 0x3af8 <Remote_New_Line>
			        		Remote_Send_String("Enter Your Admin 4_Digits Emergency PassWord\r\n");
    3ca4:	8a e0       	ldi	r24, 0x0A	; 10
    3ca6:	91 e0       	ldi	r25, 0x01	; 1
    3ca8:	0e 94 6c 1d 	call	0x3ad8	; 0x3ad8 <Remote_Send_String>
			        		Remote_Typing(Emergency,4,SHOWN);
    3cac:	ce 01       	movw	r24, r28
    3cae:	c0 96       	adiw	r24, 0x30	; 48
    3cb0:	64 e0       	ldi	r22, 0x04	; 4
    3cb2:	70 e0       	ldi	r23, 0x00	; 0
    3cb4:	40 e0       	ldi	r20, 0x00	; 0
    3cb6:	50 e0       	ldi	r21, 0x00	; 0
    3cb8:	0e 94 1c 1d 	call	0x3a38	; 0x3a38 <Remote_Typing>
			        		Remote_New_Line(2);
    3cbc:	82 e0       	ldi	r24, 0x02	; 2
    3cbe:	90 e0       	ldi	r25, 0x00	; 0
    3cc0:	0e 94 7c 1d 	call	0x3af8	; 0x3af8 <Remote_New_Line>
				    		Remote_Send_String("Your UserName\r\n");
    3cc4:	89 e3       	ldi	r24, 0x39	; 57
    3cc6:	91 e0       	ldi	r25, 0x01	; 1
    3cc8:	0e 94 6c 1d 	call	0x3ad8	; 0x3ad8 <Remote_Send_String>
				       		Remote_Display(UserName,8);
    3ccc:	ce 01       	movw	r24, r28
    3cce:	80 96       	adiw	r24, 0x20	; 32
    3cd0:	68 e0       	ldi	r22, 0x08	; 8
    3cd2:	0e 94 94 1d 	call	0x3b28	; 0x3b28 <Remote_Display>
				       		Remote_New_Line(1);
    3cd6:	81 e0       	ldi	r24, 0x01	; 1
    3cd8:	90 e0       	ldi	r25, 0x00	; 0
    3cda:	0e 94 7c 1d 	call	0x3af8	; 0x3af8 <Remote_New_Line>
				       		Remote_Send_String("Your Password\r\n");
    3cde:	89 e4       	ldi	r24, 0x49	; 73
    3ce0:	91 e0       	ldi	r25, 0x01	; 1
    3ce2:	0e 94 6c 1d 	call	0x3ad8	; 0x3ad8 <Remote_Send_String>
				       		Remote_Display(PassWord,8);
    3ce6:	ce 01       	movw	r24, r28
    3ce8:	88 96       	adiw	r24, 0x28	; 40
    3cea:	68 e0       	ldi	r22, 0x08	; 8
    3cec:	0e 94 94 1d 	call	0x3b28	; 0x3b28 <Remote_Display>
				       		Remote_New_Line(1);
    3cf0:	81 e0       	ldi	r24, 0x01	; 1
    3cf2:	90 e0       	ldi	r25, 0x00	; 0
    3cf4:	0e 94 7c 1d 	call	0x3af8	; 0x3af8 <Remote_New_Line>
				       		Remote_Send_String("Your Emergency PassWord\r\n");
    3cf8:	89 e5       	ldi	r24, 0x59	; 89
    3cfa:	91 e0       	ldi	r25, 0x01	; 1
    3cfc:	0e 94 6c 1d 	call	0x3ad8	; 0x3ad8 <Remote_Send_String>
				       		Remote_Display(Emergency,4);
    3d00:	ce 01       	movw	r24, r28
    3d02:	c0 96       	adiw	r24, 0x30	; 48
    3d04:	64 e0       	ldi	r22, 0x04	; 4
    3d06:	0e 94 94 1d 	call	0x3b28	; 0x3b28 <Remote_Display>
				       		Remote_New_Line(2);
    3d0a:	82 e0       	ldi	r24, 0x02	; 2
    3d0c:	90 e0       	ldi	r25, 0x00	; 0
    3d0e:	0e 94 7c 1d 	call	0x3af8	; 0x3af8 <Remote_New_Line>
				    	    Remote_Send_String("To Confirm Press 'C' **PROGRAM WILL EXIT** \r\n");
    3d12:	83 e7       	ldi	r24, 0x73	; 115
    3d14:	91 e0       	ldi	r25, 0x01	; 1
    3d16:	0e 94 6c 1d 	call	0x3ad8	; 0x3ad8 <Remote_Send_String>
				    	    Remote_Send_String("To Decline Press 'D' \r\n");
    3d1a:	81 ea       	ldi	r24, 0xA1	; 161
    3d1c:	91 e0       	ldi	r25, 0x01	; 1
    3d1e:	0e 94 6c 1d 	call	0x3ad8	; 0x3ad8 <Remote_Send_String>
				    		Remote_New_Line(2);
    3d22:	82 e0       	ldi	r24, 0x02	; 2
    3d24:	90 e0       	ldi	r25, 0x00	; 0
    3d26:	0e 94 7c 1d 	call	0x3af8	; 0x3af8 <Remote_New_Line>
				    	    Data= USART_Recive_Char();
    3d2a:	0e 94 69 0f 	call	0x1ed2	; 0x1ed2 <USART_Recive_Char>
    3d2e:	8e 8b       	std	Y+22, r24	; 0x16
				    	    if(Data == 'C'||Data=='c')
    3d30:	8e 89       	ldd	r24, Y+22	; 0x16
    3d32:	83 34       	cpi	r24, 0x43	; 67
    3d34:	21 f0       	breq	.+8      	; 0x3d3e <main+0x132>
    3d36:	8e 89       	ldd	r24, Y+22	; 0x16
    3d38:	83 36       	cpi	r24, 0x63	; 99
    3d3a:	09 f0       	breq	.+2      	; 0x3d3e <main+0x132>
    3d3c:	50 c0       	rjmp	.+160    	; 0x3dde <main+0x1d2>
				    	     {
				    	    	Temp_AC_Check();
    3d3e:	0e 94 e9 1d 	call	0x3bd2	; 0x3bd2 <Temp_AC_Check>
				    	    	Remote_Send_String("PLEASE WAIT");
    3d42:	89 eb       	ldi	r24, 0xB9	; 185
    3d44:	91 e0       	ldi	r25, 0x01	; 1
    3d46:	0e 94 6c 1d 	call	0x3ad8	; 0x3ad8 <Remote_Send_String>
				    	        Save_Info(0,UserName,8);
    3d4a:	9e 01       	movw	r18, r28
    3d4c:	20 5e       	subi	r18, 0xE0	; 224
    3d4e:	3f 4f       	sbci	r19, 0xFF	; 255
    3d50:	80 e0       	ldi	r24, 0x00	; 0
    3d52:	90 e0       	ldi	r25, 0x00	; 0
    3d54:	b9 01       	movw	r22, r18
    3d56:	48 e0       	ldi	r20, 0x08	; 8
    3d58:	0e 94 d4 10 	call	0x21a8	; 0x21a8 <Save_Info>
				    			Save_Info(48,PassWord,8);
    3d5c:	9e 01       	movw	r18, r28
    3d5e:	28 5d       	subi	r18, 0xD8	; 216
    3d60:	3f 4f       	sbci	r19, 0xFF	; 255
    3d62:	80 e3       	ldi	r24, 0x30	; 48
    3d64:	90 e0       	ldi	r25, 0x00	; 0
    3d66:	b9 01       	movw	r22, r18
    3d68:	48 e0       	ldi	r20, 0x08	; 8
    3d6a:	0e 94 d4 10 	call	0x21a8	; 0x21a8 <Save_Info>
				    			Save_Info(96,Emergency,4);
    3d6e:	9e 01       	movw	r18, r28
    3d70:	20 5d       	subi	r18, 0xD0	; 208
    3d72:	3f 4f       	sbci	r19, 0xFF	; 255
    3d74:	80 e6       	ldi	r24, 0x60	; 96
    3d76:	90 e0       	ldi	r25, 0x00	; 0
    3d78:	b9 01       	movw	r22, r18
    3d7a:	44 e0       	ldi	r20, 0x04	; 4
    3d7c:	0e 94 d4 10 	call	0x21a8	; 0x21a8 <Save_Info>
				    			Add_Num+=8;       /*increment the Address for the Next Store*/
    3d80:	89 89       	ldd	r24, Y+17	; 0x11
    3d82:	88 5f       	subi	r24, 0xF8	; 248
    3d84:	89 8b       	std	Y+17, r24	; 0x11
				    			Em_Add_Num+=4;    /*increment the Address for the Next Store*/
    3d86:	88 89       	ldd	r24, Y+16	; 0x10
    3d88:	8c 5f       	subi	r24, 0xFC	; 252
    3d8a:	88 8b       	std	Y+16, r24	; 0x10
				    			Remote_New_Line(2);
    3d8c:	82 e0       	ldi	r24, 0x02	; 2
    3d8e:	90 e0       	ldi	r25, 0x00	; 0
    3d90:	0e 94 7c 1d 	call	0x3af8	; 0x3af8 <Remote_New_Line>
				    			Remote_Send_String("YOU ARE USER CHARCTER is  ");
    3d94:	85 ec       	ldi	r24, 0xC5	; 197
    3d96:	91 e0       	ldi	r25, 0x01	; 1
    3d98:	0e 94 6c 1d 	call	0x3ad8	; 0x3ad8 <Remote_Send_String>
				    			USART_Send_Char(User_Char[User_Num]);
    3d9c:	8d 89       	ldd	r24, Y+21	; 0x15
    3d9e:	88 2f       	mov	r24, r24
    3da0:	90 e0       	ldi	r25, 0x00	; 0
    3da2:	fc 01       	movw	r30, r24
    3da4:	e9 5e       	subi	r30, 0xE9	; 233
    3da6:	fb 4f       	sbci	r31, 0xFB	; 251
    3da8:	80 81       	ld	r24, Z
    3daa:	0e 94 4f 0f 	call	0x1e9e	; 0x1e9e <USART_Send_Char>
				    			Remote_New_Line(1);
    3dae:	81 e0       	ldi	r24, 0x01	; 1
    3db0:	90 e0       	ldi	r25, 0x00	; 0
    3db2:	0e 94 7c 1d 	call	0x3af8	; 0x3af8 <Remote_New_Line>
				    			Remote_Send_String("****PLEASE MEMORIZE YOUR USER CHARCTER****");
    3db6:	80 ee       	ldi	r24, 0xE0	; 224
    3db8:	91 e0       	ldi	r25, 0x01	; 1
    3dba:	0e 94 6c 1d 	call	0x3ad8	; 0x3ad8 <Remote_Send_String>
				    			Remote_New_Line(2);
    3dbe:	82 e0       	ldi	r24, 0x02	; 2
    3dc0:	90 e0       	ldi	r25, 0x00	; 0
    3dc2:	0e 94 7c 1d 	call	0x3af8	; 0x3af8 <Remote_New_Line>
				    			Remote_Send_String("IF YOU WISH TO RESTART THE PROGRAM PRESS ANY KEY \r\n");
    3dc6:	8b e0       	ldi	r24, 0x0B	; 11
    3dc8:	92 e0       	ldi	r25, 0x02	; 2
    3dca:	0e 94 6c 1d 	call	0x3ad8	; 0x3ad8 <Remote_Send_String>
				    			User_Num++;
    3dce:	8d 89       	ldd	r24, Y+21	; 0x15
    3dd0:	8f 5f       	subi	r24, 0xFF	; 255
    3dd2:	8d 8b       	std	Y+21, r24	; 0x15
				    	    	Program_Check=0;      /*PROGRAM RESTART*/
    3dd4:	10 92 30 04 	sts	0x0430, r1
				    	    	USART_RX_IE();        /*PROGRAM RESTART*/
    3dd8:	0e 94 17 0f 	call	0x1e2e	; 0x1e2e <USART_RX_IE>
    3ddc:	fc c1       	rjmp	.+1016   	; 0x41d6 <main+0x5ca>
                               break;
				    	     }
				    	    else
				    	     {
				    	 	   Data = 'A';
    3dde:	81 e4       	ldi	r24, 0x41	; 65
    3de0:	8e 8b       	std	Y+22, r24	; 0x16
				    	     }

			            	}while(Data =='A');
    3de2:	8e 89       	ldd	r24, Y+22	; 0x16
    3de4:	81 34       	cpi	r24, 0x41	; 65
    3de6:	09 f4       	brne	.+2      	; 0x3dea <main+0x1de>
    3de8:	3b cf       	rjmp	.-394    	; 0x3c60 <main+0x54>
    3dea:	f5 c1       	rjmp	.+1002   	; 0x41d6 <main+0x5ca>
			            }
			            else if(User_Num !=0)
    3dec:	8d 89       	ldd	r24, Y+21	; 0x15
    3dee:	88 23       	and	r24, r24
    3df0:	09 f4       	brne	.+2      	; 0x3df4 <main+0x1e8>
    3df2:	f1 c1       	rjmp	.+994    	; 0x41d6 <main+0x5ca>
			            {
			            	Temp_AC_Check();
    3df4:	0e 94 e9 1d 	call	0x3bd2	; 0x3bd2 <Temp_AC_Check>
			         		USART_Send_String("A) SIGN IN\r\n");
    3df8:	8f e3       	ldi	r24, 0x3F	; 63
    3dfa:	92 e0       	ldi	r25, 0x02	; 2
    3dfc:	0e 94 78 0f 	call	0x1ef0	; 0x1ef0 <USART_Send_String>
			            	USART_Send_String("B) ADD NEW USER\r\n");
    3e00:	8c e4       	ldi	r24, 0x4C	; 76
    3e02:	92 e0       	ldi	r25, 0x02	; 2
    3e04:	0e 94 78 0f 	call	0x1ef0	; 0x1ef0 <USART_Send_String>
			            	Data = USART_Recive_Char();
    3e08:	0e 94 69 0f 	call	0x1ed2	; 0x1ed2 <USART_Recive_Char>
    3e0c:	8e 8b       	std	Y+22, r24	; 0x16
/*************************************************************************************************************************************/
/***************************************************************SIGN IN***************************************************************/
/*************************************************************************************************************************************/
			            	if (Data=='A'||Data=='a')
    3e0e:	8e 89       	ldd	r24, Y+22	; 0x16
    3e10:	81 34       	cpi	r24, 0x41	; 65
    3e12:	21 f0       	breq	.+8      	; 0x3e1c <main+0x210>
    3e14:	8e 89       	ldd	r24, Y+22	; 0x16
    3e16:	81 36       	cpi	r24, 0x61	; 97
    3e18:	09 f0       	breq	.+2      	; 0x3e1c <main+0x210>
    3e1a:	e7 c0       	rjmp	.+462    	; 0x3fea <main+0x3de>
			            	{
			            		do
			            		{
			            	    Temp_AC_Check();
    3e1c:	0e 94 e9 1d 	call	0x3bd2	; 0x3bd2 <Temp_AC_Check>
			            		USART_Send_String("ENTER UR USER CHARCTER\r\n");
    3e20:	8e e5       	ldi	r24, 0x5E	; 94
    3e22:	92 e0       	ldi	r25, 0x02	; 2
    3e24:	0e 94 78 0f 	call	0x1ef0	; 0x1ef0 <USART_Send_String>
			            		Data = USART_Recive_Char();
    3e28:	0e 94 69 0f 	call	0x1ed2	; 0x1ed2 <USART_Recive_Char>
    3e2c:	8e 8b       	std	Y+22, r24	; 0x16
			   				    Remote_Send_String("Please Enter UserName\r\n");
    3e2e:	87 e7       	ldi	r24, 0x77	; 119
    3e30:	92 e0       	ldi	r25, 0x02	; 2
    3e32:	0e 94 6c 1d 	call	0x3ad8	; 0x3ad8 <Remote_Send_String>
				        		Remote_Typing(UserName,8,SHOWN);
    3e36:	ce 01       	movw	r24, r28
    3e38:	80 96       	adiw	r24, 0x20	; 32
    3e3a:	68 e0       	ldi	r22, 0x08	; 8
    3e3c:	70 e0       	ldi	r23, 0x00	; 0
    3e3e:	40 e0       	ldi	r20, 0x00	; 0
    3e40:	50 e0       	ldi	r21, 0x00	; 0
    3e42:	0e 94 1c 1d 	call	0x3a38	; 0x3a38 <Remote_Typing>
				        		Remote_New_Line(1);
    3e46:	81 e0       	ldi	r24, 0x01	; 1
    3e48:	90 e0       	ldi	r25, 0x00	; 0
    3e4a:	0e 94 7c 1d 	call	0x3af8	; 0x3af8 <Remote_New_Line>
				        		Remote_Send_String("Please Enter PassWord\r\n");
    3e4e:	8f e8       	ldi	r24, 0x8F	; 143
    3e50:	92 e0       	ldi	r25, 0x02	; 2
    3e52:	0e 94 6c 1d 	call	0x3ad8	; 0x3ad8 <Remote_Send_String>
				        		Remote_Typing(PassWord,8,STAR);
    3e56:	ce 01       	movw	r24, r28
    3e58:	88 96       	adiw	r24, 0x28	; 40
    3e5a:	68 e0       	ldi	r22, 0x08	; 8
    3e5c:	70 e0       	ldi	r23, 0x00	; 0
    3e5e:	41 e0       	ldi	r20, 0x01	; 1
    3e60:	50 e0       	ldi	r21, 0x00	; 0
    3e62:	0e 94 1c 1d 	call	0x3a38	; 0x3a38 <Remote_Typing>
				        		Remote_New_Line(2);
    3e66:	82 e0       	ldi	r24, 0x02	; 2
    3e68:	90 e0       	ldi	r25, 0x00	; 0
    3e6a:	0e 94 7c 1d 	call	0x3af8	; 0x3af8 <Remote_New_Line>
				        		//Check=Info_Check(Memo_Data,UserName);
				        		Data= USART_Recive_Char();
    3e6e:	0e 94 69 0f 	call	0x1ed2	; 0x1ed2 <USART_Recive_Char>
    3e72:	8e 8b       	std	Y+22, r24	; 0x16
				        			if(/*strcmp(UserName,PassWord)==0*||*/ Data=='B'|| Data=='b')
    3e74:	8e 89       	ldd	r24, Y+22	; 0x16
    3e76:	82 34       	cpi	r24, 0x42	; 66
    3e78:	19 f0       	breq	.+6      	; 0x3e80 <main+0x274>
    3e7a:	8e 89       	ldd	r24, Y+22	; 0x16
    3e7c:	82 36       	cpi	r24, 0x62	; 98
    3e7e:	51 f4       	brne	.+20     	; 0x3e94 <main+0x288>
				        			{
				        				USART_Send_String("User Not Found");
    3e80:	87 ea       	ldi	r24, 0xA7	; 167
    3e82:	92 e0       	ldi	r25, 0x02	; 2
    3e84:	0e 94 78 0f 	call	0x1ef0	; 0x1ef0 <USART_Send_String>
				        				Remote_New_Line(1);
    3e88:	81 e0       	ldi	r24, 0x01	; 1
    3e8a:	90 e0       	ldi	r25, 0x00	; 0
    3e8c:	0e 94 7c 1d 	call	0x3af8	; 0x3af8 <Remote_New_Line>
				        				User_Check=0;
    3e90:	1c 8a       	std	Y+20, r1	; 0x14
    3e92:	02 c0       	rjmp	.+4      	; 0x3e98 <main+0x28c>
				        				/*if(Check==ADMIN)
				        				Admin_Check=ADMIN;*/
				        				/*Condition if user signed in is not the Admin*/
				        				/*else if(Check==USER)
				        				Admin_Check=USER;*/
				        				User_Check=1;
    3e94:	81 e0       	ldi	r24, 0x01	; 1
    3e96:	8c 8b       	std	Y+20, r24	; 0x14
   				        			}

			            		}while(User_Check==0);
    3e98:	8c 89       	ldd	r24, Y+20	; 0x14
    3e9a:	88 23       	and	r24, r24
    3e9c:	09 f4       	brne	.+2      	; 0x3ea0 <main+0x294>
    3e9e:	be cf       	rjmp	.-132    	; 0x3e1c <main+0x210>
                              Data= USART_Recive_Char();
    3ea0:	0e 94 69 0f 	call	0x1ed2	; 0x1ed2 <USART_Recive_Char>
    3ea4:	8e 8b       	std	Y+22, r24	; 0x16
			            	 if(/*Admin_Check == ADMIN ||*/ Data=='A' || Data=='a')
    3ea6:	8e 89       	ldd	r24, Y+22	; 0x16
    3ea8:	81 34       	cpi	r24, 0x41	; 65
    3eaa:	21 f0       	breq	.+8      	; 0x3eb4 <main+0x2a8>
    3eac:	8e 89       	ldd	r24, Y+22	; 0x16
    3eae:	81 36       	cpi	r24, 0x61	; 97
    3eb0:	09 f0       	breq	.+2      	; 0x3eb4 <main+0x2a8>
    3eb2:	5b c0       	rjmp	.+182    	; 0x3f6a <main+0x35e>
			            	 {
			            		     Temp_AC_Check();
    3eb4:	0e 94 e9 1d 	call	0x3bd2	; 0x3bd2 <Temp_AC_Check>
			            		     Remote_Send_String("To Open Door Press 'O' \r\n");
    3eb8:	86 eb       	ldi	r24, 0xB6	; 182
    3eba:	92 e0       	ldi	r25, 0x02	; 2
    3ebc:	0e 94 6c 1d 	call	0x3ad8	; 0x3ad8 <Remote_Send_String>
			            		     Remote_Send_String("To Close Door Press 'S' \r\n");
    3ec0:	80 ed       	ldi	r24, 0xD0	; 208
    3ec2:	92 e0       	ldi	r25, 0x02	; 2
    3ec4:	0e 94 6c 1d 	call	0x3ad8	; 0x3ad8 <Remote_Send_String>
			            		     Remote_Send_String("To Open Light  Press 'L' \r\n");
    3ec8:	8b ee       	ldi	r24, 0xEB	; 235
    3eca:	92 e0       	ldi	r25, 0x02	; 2
    3ecc:	0e 94 6c 1d 	call	0x3ad8	; 0x3ad8 <Remote_Send_String>
			            		     Remote_Send_String("To Close Light  Press 'C' \r\n");
    3ed0:	87 e0       	ldi	r24, 0x07	; 7
    3ed2:	93 e0       	ldi	r25, 0x03	; 3
    3ed4:	0e 94 6c 1d 	call	0x3ad8	; 0x3ad8 <Remote_Send_String>
			            		     Remote_Send_String("To Exit The Program Press 'E'  \r\n ");
    3ed8:	84 e2       	ldi	r24, 0x24	; 36
    3eda:	93 e0       	ldi	r25, 0x03	; 3
    3edc:	0e 94 6c 1d 	call	0x3ad8	; 0x3ad8 <Remote_Send_String>
									 do {
										 Data=USART_Recive_Char();
    3ee0:	0e 94 69 0f 	call	0x1ed2	; 0x1ed2 <USART_Recive_Char>
    3ee4:	8e 8b       	std	Y+22, r24	; 0x16
										 if(Data=='O'||Data=='o')
    3ee6:	8e 89       	ldd	r24, Y+22	; 0x16
    3ee8:	8f 34       	cpi	r24, 0x4F	; 79
    3eea:	19 f0       	breq	.+6      	; 0x3ef2 <main+0x2e6>
    3eec:	8e 89       	ldd	r24, Y+22	; 0x16
    3eee:	8f 36       	cpi	r24, 0x6F	; 111
    3ef0:	49 f4       	brne	.+18     	; 0x3f04 <main+0x2f8>
										 {
											Door_Open();
    3ef2:	0e 94 13 10 	call	0x2026	; 0x2026 <Door_Open>
											LCD_ClearDisplay();
    3ef6:	0e 94 3e 1c 	call	0x387c	; 0x387c <LCD_ClearDisplay>
											LCD_enuSendString("DOOR OPEN");
    3efa:	87 e4       	ldi	r24, 0x47	; 71
    3efc:	93 e0       	ldi	r25, 0x03	; 3
    3efe:	0e 94 11 18 	call	0x3022	; 0x3022 <LCD_enuSendString>
    3f02:	24 c0       	rjmp	.+72     	; 0x3f4c <main+0x340>
	 									 }
										 else if(Data == 'S'|| Data=='s')
    3f04:	8e 89       	ldd	r24, Y+22	; 0x16
    3f06:	83 35       	cpi	r24, 0x53	; 83
    3f08:	19 f0       	breq	.+6      	; 0x3f10 <main+0x304>
    3f0a:	8e 89       	ldd	r24, Y+22	; 0x16
    3f0c:	83 37       	cpi	r24, 0x73	; 115
    3f0e:	29 f4       	brne	.+10     	; 0x3f1a <main+0x30e>
										 {
											 Door_Close();
    3f10:	0e 94 1c 10 	call	0x2038	; 0x2038 <Door_Close>
											 LCD_ClearDisplay();
    3f14:	0e 94 3e 1c 	call	0x387c	; 0x387c <LCD_ClearDisplay>
    3f18:	19 c0       	rjmp	.+50     	; 0x3f4c <main+0x340>
										 }
										 else if (Data =='L' || Data=='l')
    3f1a:	8e 89       	ldd	r24, Y+22	; 0x16
    3f1c:	8c 34       	cpi	r24, 0x4C	; 76
    3f1e:	19 f0       	breq	.+6      	; 0x3f26 <main+0x31a>
    3f20:	8e 89       	ldd	r24, Y+22	; 0x16
    3f22:	8c 36       	cpi	r24, 0x6C	; 108
    3f24:	49 f4       	brne	.+18     	; 0x3f38 <main+0x32c>
										 {
											 leds_vON();
    3f26:	0e 94 6b 1c 	call	0x38d6	; 0x38d6 <leds_vON>
											 LCD_ClearDisplay();
    3f2a:	0e 94 3e 1c 	call	0x387c	; 0x387c <LCD_ClearDisplay>
											 LCD_enuSendString("LIGHT ON");
    3f2e:	81 e5       	ldi	r24, 0x51	; 81
    3f30:	93 e0       	ldi	r25, 0x03	; 3
    3f32:	0e 94 11 18 	call	0x3022	; 0x3022 <LCD_enuSendString>
    3f36:	0a c0       	rjmp	.+20     	; 0x3f4c <main+0x340>
										 }
										 else if (Data =='C'||Data=='c')
    3f38:	8e 89       	ldd	r24, Y+22	; 0x16
    3f3a:	83 34       	cpi	r24, 0x43	; 67
    3f3c:	19 f0       	breq	.+6      	; 0x3f44 <main+0x338>
    3f3e:	8e 89       	ldd	r24, Y+22	; 0x16
    3f40:	83 36       	cpi	r24, 0x63	; 99
    3f42:	21 f4       	brne	.+8      	; 0x3f4c <main+0x340>
										 {
											 leds_vOFF();
    3f44:	0e 94 a4 1c 	call	0x3948	; 0x3948 <leds_vOFF>
											 LCD_ClearDisplay();
    3f48:	0e 94 3e 1c 	call	0x387c	; 0x387c <LCD_ClearDisplay>
										 }

									 }while (Data!='E'&& Data!= 'e');
    3f4c:	8e 89       	ldd	r24, Y+22	; 0x16
    3f4e:	85 34       	cpi	r24, 0x45	; 69
    3f50:	19 f0       	breq	.+6      	; 0x3f58 <main+0x34c>
    3f52:	8e 89       	ldd	r24, Y+22	; 0x16
    3f54:	85 36       	cpi	r24, 0x65	; 101
    3f56:	21 f6       	brne	.-120    	; 0x3ee0 <main+0x2d4>
							  Remote_New_Line(1);
    3f58:	81 e0       	ldi	r24, 0x01	; 1
    3f5a:	90 e0       	ldi	r25, 0x00	; 0
    3f5c:	0e 94 7c 1d 	call	0x3af8	; 0x3af8 <Remote_New_Line>
							  Remote_Send_String("IF YOU WISH TO RESTART THE PROGRAM PRESS ANY KEY \r\n");
    3f60:	8b e0       	ldi	r24, 0x0B	; 11
    3f62:	92 e0       	ldi	r25, 0x02	; 2
    3f64:	0e 94 6c 1d 	call	0x3ad8	; 0x3ad8 <Remote_Send_String>
    3f68:	36 c1       	rjmp	.+620    	; 0x41d6 <main+0x5ca>
			            	 }

			            	 else if(/*Admin_Check == USER ||*/Data =='U' ||Data =='u')
    3f6a:	8e 89       	ldd	r24, Y+22	; 0x16
    3f6c:	85 35       	cpi	r24, 0x55	; 85
    3f6e:	21 f0       	breq	.+8      	; 0x3f78 <main+0x36c>
    3f70:	8e 89       	ldd	r24, Y+22	; 0x16
    3f72:	85 37       	cpi	r24, 0x75	; 117
    3f74:	09 f0       	breq	.+2      	; 0x3f78 <main+0x36c>
    3f76:	2f c1       	rjmp	.+606    	; 0x41d6 <main+0x5ca>
			            	 {
			            		     Temp_AC_Check();
    3f78:	0e 94 e9 1d 	call	0x3bd2	; 0x3bd2 <Temp_AC_Check>
			            		     Remote_Send_String("To Open Light  press 'L' \r\n");
    3f7c:	8a e5       	ldi	r24, 0x5A	; 90
    3f7e:	93 e0       	ldi	r25, 0x03	; 3
    3f80:	0e 94 6c 1d 	call	0x3ad8	; 0x3ad8 <Remote_Send_String>
			            		     Remote_Send_String("To Close Light  press 'C' \r\n");
    3f84:	86 e7       	ldi	r24, 0x76	; 118
    3f86:	93 e0       	ldi	r25, 0x03	; 3
    3f88:	0e 94 6c 1d 	call	0x3ad8	; 0x3ad8 <Remote_Send_String>
			            		     Remote_Send_String("To Exit The Program Press 'E' \r\n ");
    3f8c:	83 e9       	ldi	r24, 0x93	; 147
    3f8e:	93 e0       	ldi	r25, 0x03	; 3
    3f90:	0e 94 6c 1d 	call	0x3ad8	; 0x3ad8 <Remote_Send_String>
									 do {
										 Data=USART_Recive_Char();
    3f94:	0e 94 69 0f 	call	0x1ed2	; 0x1ed2 <USART_Recive_Char>
    3f98:	8e 8b       	std	Y+22, r24	; 0x16
										 if (Data =='L' || Data=='l')
    3f9a:	8e 89       	ldd	r24, Y+22	; 0x16
    3f9c:	8c 34       	cpi	r24, 0x4C	; 76
    3f9e:	19 f0       	breq	.+6      	; 0x3fa6 <main+0x39a>
    3fa0:	8e 89       	ldd	r24, Y+22	; 0x16
    3fa2:	8c 36       	cpi	r24, 0x6C	; 108
    3fa4:	49 f4       	brne	.+18     	; 0x3fb8 <main+0x3ac>
										 {
											 leds_vON();
    3fa6:	0e 94 6b 1c 	call	0x38d6	; 0x38d6 <leds_vON>
											 LCD_ClearDisplay();
    3faa:	0e 94 3e 1c 	call	0x387c	; 0x387c <LCD_ClearDisplay>
											 LCD_enuSendString("LIGHT_ON");
    3fae:	85 eb       	ldi	r24, 0xB5	; 181
    3fb0:	93 e0       	ldi	r25, 0x03	; 3
    3fb2:	0e 94 11 18 	call	0x3022	; 0x3022 <LCD_enuSendString>
    3fb6:	0a c0       	rjmp	.+20     	; 0x3fcc <main+0x3c0>
										 }
										 else if (Data =='C'|| Data=='c')
    3fb8:	8e 89       	ldd	r24, Y+22	; 0x16
    3fba:	83 34       	cpi	r24, 0x43	; 67
    3fbc:	19 f0       	breq	.+6      	; 0x3fc4 <main+0x3b8>
    3fbe:	8e 89       	ldd	r24, Y+22	; 0x16
    3fc0:	83 36       	cpi	r24, 0x63	; 99
    3fc2:	21 f4       	brne	.+8      	; 0x3fcc <main+0x3c0>
										 {
											 leds_vOFF();
    3fc4:	0e 94 a4 1c 	call	0x3948	; 0x3948 <leds_vOFF>
											 LCD_ClearDisplay();
    3fc8:	0e 94 3e 1c 	call	0x387c	; 0x387c <LCD_ClearDisplay>
										 }
									   }while(Data!='E'&& Data!= 'e');
    3fcc:	8e 89       	ldd	r24, Y+22	; 0x16
    3fce:	85 34       	cpi	r24, 0x45	; 69
    3fd0:	19 f0       	breq	.+6      	; 0x3fd8 <main+0x3cc>
    3fd2:	8e 89       	ldd	r24, Y+22	; 0x16
    3fd4:	85 36       	cpi	r24, 0x65	; 101
    3fd6:	f1 f6       	brne	.-68     	; 0x3f94 <main+0x388>
								Remote_New_Line(1);
    3fd8:	81 e0       	ldi	r24, 0x01	; 1
    3fda:	90 e0       	ldi	r25, 0x00	; 0
    3fdc:	0e 94 7c 1d 	call	0x3af8	; 0x3af8 <Remote_New_Line>
								Remote_Send_String("IF YOU WISH TO RESTART THE PROGRAM PRESS ANY KEY \r\n");
    3fe0:	8b e0       	ldi	r24, 0x0B	; 11
    3fe2:	92 e0       	ldi	r25, 0x02	; 2
    3fe4:	0e 94 6c 1d 	call	0x3ad8	; 0x3ad8 <Remote_Send_String>
    3fe8:	f6 c0       	rjmp	.+492    	; 0x41d6 <main+0x5ca>
			            	  }
/******************************************************************************************************************************************/			            	 }
/***************************************************************ADD NEW USER***************************************************************/
/******************************************************************************************************************************************/
			            	else if (Data == 'B'||Data =='b')
    3fea:	8e 89       	ldd	r24, Y+22	; 0x16
    3fec:	82 34       	cpi	r24, 0x42	; 66
    3fee:	21 f0       	breq	.+8      	; 0x3ff8 <main+0x3ec>
    3ff0:	8e 89       	ldd	r24, Y+22	; 0x16
    3ff2:	82 36       	cpi	r24, 0x62	; 98
    3ff4:	09 f0       	breq	.+2      	; 0x3ff8 <main+0x3ec>
    3ff6:	ef c0       	rjmp	.+478    	; 0x41d6 <main+0x5ca>
							{
			            		do
			            		{
			            			Temp_AC_Check();
    3ff8:	0e 94 e9 1d 	call	0x3bd2	; 0x3bd2 <Temp_AC_Check>
									Remote_Send_String("Please Enter Admin UserName\r\n");
    3ffc:	8e ec       	ldi	r24, 0xCE	; 206
    3ffe:	90 e0       	ldi	r25, 0x00	; 0
    4000:	0e 94 6c 1d 	call	0x3ad8	; 0x3ad8 <Remote_Send_String>
									Remote_Typing(UserName,8,SHOWN);
    4004:	ce 01       	movw	r24, r28
    4006:	80 96       	adiw	r24, 0x20	; 32
    4008:	68 e0       	ldi	r22, 0x08	; 8
    400a:	70 e0       	ldi	r23, 0x00	; 0
    400c:	40 e0       	ldi	r20, 0x00	; 0
    400e:	50 e0       	ldi	r21, 0x00	; 0
    4010:	0e 94 1c 1d 	call	0x3a38	; 0x3a38 <Remote_Typing>
									Remote_New_Line(1);
    4014:	81 e0       	ldi	r24, 0x01	; 1
    4016:	90 e0       	ldi	r25, 0x00	; 0
    4018:	0e 94 7c 1d 	call	0x3af8	; 0x3af8 <Remote_New_Line>
									Remote_Send_String("Please Enter Admin PassWord\r\n");
    401c:	8c ee       	ldi	r24, 0xEC	; 236
    401e:	90 e0       	ldi	r25, 0x00	; 0
    4020:	0e 94 6c 1d 	call	0x3ad8	; 0x3ad8 <Remote_Send_String>
									Remote_Typing(PassWord,8,STAR);
    4024:	ce 01       	movw	r24, r28
    4026:	88 96       	adiw	r24, 0x28	; 40
    4028:	68 e0       	ldi	r22, 0x08	; 8
    402a:	70 e0       	ldi	r23, 0x00	; 0
    402c:	41 e0       	ldi	r20, 0x01	; 1
    402e:	50 e0       	ldi	r21, 0x00	; 0
    4030:	0e 94 1c 1d 	call	0x3a38	; 0x3a38 <Remote_Typing>
									Remote_New_Line(2);
    4034:	82 e0       	ldi	r24, 0x02	; 2
    4036:	90 e0       	ldi	r25, 0x00	; 0
    4038:	0e 94 7c 1d 	call	0x3af8	; 0x3af8 <Remote_New_Line>
									/*search algorithm To check Admin Info*/
									Data =USART_Recive_Char();
    403c:	0e 94 69 0f 	call	0x1ed2	; 0x1ed2 <USART_Recive_Char>
    4040:	8e 8b       	std	Y+22, r24	; 0x16
									if(Data=='L'||Data=='l')
    4042:	8e 89       	ldd	r24, Y+22	; 0x16
    4044:	8c 34       	cpi	r24, 0x4C	; 76
    4046:	19 f0       	breq	.+6      	; 0x404e <main+0x442>
    4048:	8e 89       	ldd	r24, Y+22	; 0x16
    404a:	8c 36       	cpi	r24, 0x6C	; 108
    404c:	51 f4       	brne	.+20     	; 0x4062 <main+0x456>
									{
										USART_Send_String("User Not Found");
    404e:	87 ea       	ldi	r24, 0xA7	; 167
    4050:	92 e0       	ldi	r25, 0x02	; 2
    4052:	0e 94 78 0f 	call	0x1ef0	; 0x1ef0 <USART_Send_String>
										Remote_New_Line(1);
    4056:	81 e0       	ldi	r24, 0x01	; 1
    4058:	90 e0       	ldi	r25, 0x00	; 0
    405a:	0e 94 7c 1d 	call	0x3af8	; 0x3af8 <Remote_New_Line>
										User_Check=0;
    405e:	1c 8a       	std	Y+20, r1	; 0x14
    4060:	b6 c0       	rjmp	.+364    	; 0x41ce <main+0x5c2>
									}
									else
									{
										do{
										Temp_AC_Check();
    4062:	0e 94 e9 1d 	call	0x3bd2	; 0x3bd2 <Temp_AC_Check>
										Remote_Send_String("Please Enter UserName\r\n");
    4066:	87 e7       	ldi	r24, 0x77	; 119
    4068:	92 e0       	ldi	r25, 0x02	; 2
    406a:	0e 94 6c 1d 	call	0x3ad8	; 0x3ad8 <Remote_Send_String>
										Remote_Typing(UserName,8,SHOWN);
    406e:	ce 01       	movw	r24, r28
    4070:	80 96       	adiw	r24, 0x20	; 32
    4072:	68 e0       	ldi	r22, 0x08	; 8
    4074:	70 e0       	ldi	r23, 0x00	; 0
    4076:	40 e0       	ldi	r20, 0x00	; 0
    4078:	50 e0       	ldi	r21, 0x00	; 0
    407a:	0e 94 1c 1d 	call	0x3a38	; 0x3a38 <Remote_Typing>
										Remote_New_Line(1);
    407e:	81 e0       	ldi	r24, 0x01	; 1
    4080:	90 e0       	ldi	r25, 0x00	; 0
    4082:	0e 94 7c 1d 	call	0x3af8	; 0x3af8 <Remote_New_Line>
										Remote_Send_String("Please Enter PassWord\r\n");
    4086:	8f e8       	ldi	r24, 0x8F	; 143
    4088:	92 e0       	ldi	r25, 0x02	; 2
    408a:	0e 94 6c 1d 	call	0x3ad8	; 0x3ad8 <Remote_Send_String>
										Remote_Typing(PassWord,8,SHOWN);
    408e:	ce 01       	movw	r24, r28
    4090:	88 96       	adiw	r24, 0x28	; 40
    4092:	68 e0       	ldi	r22, 0x08	; 8
    4094:	70 e0       	ldi	r23, 0x00	; 0
    4096:	40 e0       	ldi	r20, 0x00	; 0
    4098:	50 e0       	ldi	r21, 0x00	; 0
    409a:	0e 94 1c 1d 	call	0x3a38	; 0x3a38 <Remote_Typing>
										Remote_New_Line(2);
    409e:	82 e0       	ldi	r24, 0x02	; 2
    40a0:	90 e0       	ldi	r25, 0x00	; 0
    40a2:	0e 94 7c 1d 	call	0x3af8	; 0x3af8 <Remote_New_Line>
										Remote_Send_String("Your UserName\r\n");
    40a6:	89 e3       	ldi	r24, 0x39	; 57
    40a8:	91 e0       	ldi	r25, 0x01	; 1
    40aa:	0e 94 6c 1d 	call	0x3ad8	; 0x3ad8 <Remote_Send_String>
										Remote_Display(UserName,8);
    40ae:	ce 01       	movw	r24, r28
    40b0:	80 96       	adiw	r24, 0x20	; 32
    40b2:	68 e0       	ldi	r22, 0x08	; 8
    40b4:	0e 94 94 1d 	call	0x3b28	; 0x3b28 <Remote_Display>
										Remote_New_Line(1);
    40b8:	81 e0       	ldi	r24, 0x01	; 1
    40ba:	90 e0       	ldi	r25, 0x00	; 0
    40bc:	0e 94 7c 1d 	call	0x3af8	; 0x3af8 <Remote_New_Line>
										Remote_Send_String("Your Password\r\n");
    40c0:	89 e4       	ldi	r24, 0x49	; 73
    40c2:	91 e0       	ldi	r25, 0x01	; 1
    40c4:	0e 94 6c 1d 	call	0x3ad8	; 0x3ad8 <Remote_Send_String>
										Remote_Display(PassWord,8);
    40c8:	ce 01       	movw	r24, r28
    40ca:	88 96       	adiw	r24, 0x28	; 40
    40cc:	68 e0       	ldi	r22, 0x08	; 8
    40ce:	0e 94 94 1d 	call	0x3b28	; 0x3b28 <Remote_Display>
										Remote_New_Line(1);
    40d2:	81 e0       	ldi	r24, 0x01	; 1
    40d4:	90 e0       	ldi	r25, 0x00	; 0
    40d6:	0e 94 7c 1d 	call	0x3af8	; 0x3af8 <Remote_New_Line>
										Remote_Send_String("To Confirm Press 'C' **PROGRAM WILL EXIT** \r\n");
    40da:	83 e7       	ldi	r24, 0x73	; 115
    40dc:	91 e0       	ldi	r25, 0x01	; 1
    40de:	0e 94 6c 1d 	call	0x3ad8	; 0x3ad8 <Remote_Send_String>
										Remote_Send_String("To Decline Press 'D' \r\n");
    40e2:	81 ea       	ldi	r24, 0xA1	; 161
    40e4:	91 e0       	ldi	r25, 0x01	; 1
    40e6:	0e 94 6c 1d 	call	0x3ad8	; 0x3ad8 <Remote_Send_String>
										Data= USART_Recive_Char();
    40ea:	0e 94 69 0f 	call	0x1ed2	; 0x1ed2 <USART_Recive_Char>
    40ee:	8e 8b       	std	Y+22, r24	; 0x16
											if(Data == 'C'||Data == 'c')
    40f0:	8e 89       	ldd	r24, Y+22	; 0x16
    40f2:	83 34       	cpi	r24, 0x43	; 67
    40f4:	21 f0       	breq	.+8      	; 0x40fe <main+0x4f2>
    40f6:	8e 89       	ldd	r24, Y+22	; 0x16
    40f8:	83 36       	cpi	r24, 0x63	; 99
    40fa:	09 f0       	breq	.+2      	; 0x40fe <main+0x4f2>
    40fc:	62 c0       	rjmp	.+196    	; 0x41c2 <main+0x5b6>
												{
												    Remote_Send_String("PLEASE WAIT");
    40fe:	89 eb       	ldi	r24, 0xB9	; 185
    4100:	91 e0       	ldi	r25, 0x01	; 1
    4102:	0e 94 6c 1d 	call	0x3ad8	; 0x3ad8 <Remote_Send_String>
												    Save_Info(Add_Num,UserName,8);
    4106:	89 89       	ldd	r24, Y+17	; 0x11
    4108:	88 2f       	mov	r24, r24
    410a:	90 e0       	ldi	r25, 0x00	; 0
    410c:	9e 01       	movw	r18, r28
    410e:	20 5e       	subi	r18, 0xE0	; 224
    4110:	3f 4f       	sbci	r19, 0xFF	; 255
    4112:	b9 01       	movw	r22, r18
    4114:	48 e0       	ldi	r20, 0x08	; 8
    4116:	0e 94 d4 10 	call	0x21a8	; 0x21a8 <Save_Info>
						    	                    Save_Info(Add_Num+48,PassWord,8);
    411a:	89 89       	ldd	r24, Y+17	; 0x11
    411c:	88 2f       	mov	r24, r24
    411e:	90 e0       	ldi	r25, 0x00	; 0
    4120:	c0 96       	adiw	r24, 0x30	; 48
    4122:	9e 01       	movw	r18, r28
    4124:	28 5d       	subi	r18, 0xD8	; 216
    4126:	3f 4f       	sbci	r19, 0xFF	; 255
    4128:	b9 01       	movw	r22, r18
    412a:	48 e0       	ldi	r20, 0x08	; 8
    412c:	0e 94 d4 10 	call	0x21a8	; 0x21a8 <Save_Info>
						    	                    Save_Info(Em_Add_Num+96,PassWord,4);
    4130:	88 89       	ldd	r24, Y+16	; 0x10
    4132:	88 2f       	mov	r24, r24
    4134:	90 e0       	ldi	r25, 0x00	; 0
    4136:	80 5a       	subi	r24, 0xA0	; 160
    4138:	9f 4f       	sbci	r25, 0xFF	; 255
    413a:	9e 01       	movw	r18, r28
    413c:	28 5d       	subi	r18, 0xD8	; 216
    413e:	3f 4f       	sbci	r19, 0xFF	; 255
    4140:	b9 01       	movw	r22, r18
    4142:	44 e0       	ldi	r20, 0x04	; 4
    4144:	0e 94 d4 10 	call	0x21a8	; 0x21a8 <Save_Info>
						    	                    Remote_Display(User_Char[User_Num],1);
    4148:	8d 89       	ldd	r24, Y+21	; 0x15
    414a:	88 2f       	mov	r24, r24
    414c:	90 e0       	ldi	r25, 0x00	; 0
    414e:	fc 01       	movw	r30, r24
    4150:	e9 5e       	subi	r30, 0xE9	; 233
    4152:	fb 4f       	sbci	r31, 0xFB	; 251
    4154:	80 81       	ld	r24, Z
    4156:	88 2f       	mov	r24, r24
    4158:	90 e0       	ldi	r25, 0x00	; 0
    415a:	61 e0       	ldi	r22, 0x01	; 1
    415c:	0e 94 94 1d 	call	0x3b28	; 0x3b28 <Remote_Display>
									    			Add_Num+=8;       /*increment the Address for the Next Store*/
    4160:	89 89       	ldd	r24, Y+17	; 0x11
    4162:	88 5f       	subi	r24, 0xF8	; 248
    4164:	89 8b       	std	Y+17, r24	; 0x11
									    			Em_Add_Num+=4;    /*increment the Address for the Next Store*/
    4166:	88 89       	ldd	r24, Y+16	; 0x10
    4168:	8c 5f       	subi	r24, 0xFC	; 252
    416a:	88 8b       	std	Y+16, r24	; 0x10
									    			Remote_New_Line(2);
    416c:	82 e0       	ldi	r24, 0x02	; 2
    416e:	90 e0       	ldi	r25, 0x00	; 0
    4170:	0e 94 7c 1d 	call	0x3af8	; 0x3af8 <Remote_New_Line>
									    			Remote_Send_String("YOU ARE USER CHARCTER is  ");
    4174:	85 ec       	ldi	r24, 0xC5	; 197
    4176:	91 e0       	ldi	r25, 0x01	; 1
    4178:	0e 94 6c 1d 	call	0x3ad8	; 0x3ad8 <Remote_Send_String>
									    			USART_Send_Char(User_Char[User_Num]);
    417c:	8d 89       	ldd	r24, Y+21	; 0x15
    417e:	88 2f       	mov	r24, r24
    4180:	90 e0       	ldi	r25, 0x00	; 0
    4182:	fc 01       	movw	r30, r24
    4184:	e9 5e       	subi	r30, 0xE9	; 233
    4186:	fb 4f       	sbci	r31, 0xFB	; 251
    4188:	80 81       	ld	r24, Z
    418a:	0e 94 4f 0f 	call	0x1e9e	; 0x1e9e <USART_Send_Char>
									    			Remote_New_Line(1);
    418e:	81 e0       	ldi	r24, 0x01	; 1
    4190:	90 e0       	ldi	r25, 0x00	; 0
    4192:	0e 94 7c 1d 	call	0x3af8	; 0x3af8 <Remote_New_Line>
									    			Remote_Send_String("****PLEASE MEMORIZE YOUR USER CHARCTER****");
    4196:	80 ee       	ldi	r24, 0xE0	; 224
    4198:	91 e0       	ldi	r25, 0x01	; 1
    419a:	0e 94 6c 1d 	call	0x3ad8	; 0x3ad8 <Remote_Send_String>
									    			Remote_New_Line(2);
    419e:	82 e0       	ldi	r24, 0x02	; 2
    41a0:	90 e0       	ldi	r25, 0x00	; 0
    41a2:	0e 94 7c 1d 	call	0x3af8	; 0x3af8 <Remote_New_Line>
									    			Remote_Send_String("IF YOU WISH TO RESTART THE PROGRAM PRESS ANY KEY \r\n");
    41a6:	8b e0       	ldi	r24, 0x0B	; 11
    41a8:	92 e0       	ldi	r25, 0x02	; 2
    41aa:	0e 94 6c 1d 	call	0x3ad8	; 0x3ad8 <Remote_Send_String>
									    			User_Num++;
    41ae:	8d 89       	ldd	r24, Y+21	; 0x15
    41b0:	8f 5f       	subi	r24, 0xFF	; 255
    41b2:	8d 8b       	std	Y+21, r24	; 0x15
									    	    	Program_Check=0;      /*PROGRAM RESTART*/
    41b4:	10 92 30 04 	sts	0x0430, r1
									    	    	USART_RX_IE();        /*PROGRAM RESTART*/
    41b8:	0e 94 17 0f 	call	0x1e2e	; 0x1e2e <USART_RX_IE>
												    User_Check=1;
    41bc:	81 e0       	ldi	r24, 0x01	; 1
    41be:	8c 8b       	std	Y+20, r24	; 0x14
    41c0:	06 c0       	rjmp	.+12     	; 0x41ce <main+0x5c2>
												    break;
												}
											else
												 {
												   Data = 'A';
    41c2:	81 e4       	ldi	r24, 0x41	; 65
    41c4:	8e 8b       	std	Y+22, r24	; 0x16

												 }

					            	}while(Data =='A');
    41c6:	8e 89       	ldd	r24, Y+22	; 0x16
    41c8:	81 34       	cpi	r24, 0x41	; 65
    41ca:	09 f4       	brne	.+2      	; 0x41ce <main+0x5c2>
    41cc:	4a cf       	rjmp	.-364    	; 0x4062 <main+0x456>

				        		}

				        	}while(User_Check ==0);
    41ce:	8c 89       	ldd	r24, Y+20	; 0x14
    41d0:	88 23       	and	r24, r24
    41d2:	09 f4       	brne	.+2      	; 0x41d6 <main+0x5ca>
    41d4:	11 cf       	rjmp	.-478    	; 0x3ff8 <main+0x3ec>
						}

			       }
		    Program_Check=0;      /*PROGRAM RESTART*/
    41d6:	10 92 30 04 	sts	0x0430, r1
		    USART_RX_IE();        /*PROGRAM RESTART*/
    41da:	0e 94 17 0f 	call	0x1e2e	; 0x1e2e <USART_RX_IE>
    41de:	29 cd       	rjmp	.-1454   	; 0x3c32 <main+0x26>
	     }
/*************************************************************************************************************************************/
/*********************************************************LCD&KEYPAD PROGRAM**********************************************************/
/*************************************************************************************************************************************/
		else if (KeyPad_Press_Check()!= KEYPAD_NOT_PRESSED)
    41e0:	0e 94 83 15 	call	0x2b06	; 0x2b06 <KeyPad_Press_Check>
    41e4:	8f 3f       	cpi	r24, 0xFF	; 255
    41e6:	91 05       	cpc	r25, r1
    41e8:	09 f4       	brne	.+2      	; 0x41ec <main+0x5e0>
    41ea:	23 cd       	rjmp	.-1466   	; 0x3c32 <main+0x26>
		{

		do{
			do{				LCD_ClearDisplay();
    41ec:	0e 94 3e 1c 	call	0x387c	; 0x387c <LCD_ClearDisplay>
			                LCD_enuSendString("ENTER_PASSWORD");
    41f0:	8e eb       	ldi	r24, 0xBE	; 190
    41f2:	93 e0       	ldi	r25, 0x03	; 3
    41f4:	0e 94 11 18 	call	0x3022	; 0x3022 <LCD_enuSendString>
			                LCD_DisplayPassword();
    41f8:	0e 94 4d 1c 	call	0x389a	; 0x389a <LCD_DisplayPassword>
			                //KeyPad_Typing(Emergency);
			                //Read_Info(96,Data,4);
							//Searching_Function(Emergency,Data);
							Keypad_enuGetPressedKey(&Key_Check);
    41fc:	ce 01       	movw	r24, r28
    41fe:	47 96       	adiw	r24, 0x17	; 23
    4200:	0e 94 01 14 	call	0x2802	; 0x2802 <Keypad_enuGetPressedKey>
							if(Key_Check == 1)
    4204:	8f 89       	ldd	r24, Y+23	; 0x17
    4206:	81 30       	cpi	r24, 0x01	; 1
    4208:	09 f4       	brne	.+2      	; 0x420c <main+0x600>
    420a:	a7 c0       	rjmp	.+334    	; 0x435a <main+0x74e>
							}
							else
							{

								do{
											LCD_ClearDisplay();
    420c:	0e 94 3e 1c 	call	0x387c	; 0x387c <LCD_ClearDisplay>
											LCD_enuSendString("WRONG_INFO");
    4210:	8d ec       	ldi	r24, 0xCD	; 205
    4212:	93 e0       	ldi	r25, 0x03	; 3
    4214:	0e 94 11 18 	call	0x3022	; 0x3022 <LCD_enuSendString>
    4218:	80 e0       	ldi	r24, 0x00	; 0
    421a:	90 e0       	ldi	r25, 0x00	; 0
    421c:	aa ef       	ldi	r26, 0xFA	; 250
    421e:	b4 e4       	ldi	r27, 0x44	; 68
    4220:	8b 87       	std	Y+11, r24	; 0x0b
    4222:	9c 87       	std	Y+12, r25	; 0x0c
    4224:	ad 87       	std	Y+13, r26	; 0x0d
    4226:	be 87       	std	Y+14, r27	; 0x0e
 */
void
_delay_ms(double __ms)
{
	uint16_t __ticks;
	double __tmp = ((F_CPU) / 4e3) * __ms;
    4228:	6b 85       	ldd	r22, Y+11	; 0x0b
    422a:	7c 85       	ldd	r23, Y+12	; 0x0c
    422c:	8d 85       	ldd	r24, Y+13	; 0x0d
    422e:	9e 85       	ldd	r25, Y+14	; 0x0e
    4230:	20 e0       	ldi	r18, 0x00	; 0
    4232:	30 e0       	ldi	r19, 0x00	; 0
    4234:	4a e7       	ldi	r20, 0x7A	; 122
    4236:	55 e4       	ldi	r21, 0x45	; 69
    4238:	0e 94 1f 02 	call	0x43e	; 0x43e <__mulsf3>
    423c:	dc 01       	movw	r26, r24
    423e:	cb 01       	movw	r24, r22
    4240:	8f 83       	std	Y+7, r24	; 0x07
    4242:	98 87       	std	Y+8, r25	; 0x08
    4244:	a9 87       	std	Y+9, r26	; 0x09
    4246:	ba 87       	std	Y+10, r27	; 0x0a
	if (__tmp < 1.0)
    4248:	6f 81       	ldd	r22, Y+7	; 0x07
    424a:	78 85       	ldd	r23, Y+8	; 0x08
    424c:	89 85       	ldd	r24, Y+9	; 0x09
    424e:	9a 85       	ldd	r25, Y+10	; 0x0a
    4250:	20 e0       	ldi	r18, 0x00	; 0
    4252:	30 e0       	ldi	r19, 0x00	; 0
    4254:	40 e8       	ldi	r20, 0x80	; 128
    4256:	5f e3       	ldi	r21, 0x3F	; 63
    4258:	0e 94 79 03 	call	0x6f2	; 0x6f2 <__ltsf2>
    425c:	88 23       	and	r24, r24
    425e:	2c f4       	brge	.+10     	; 0x426a <main+0x65e>
		__ticks = 1;
    4260:	81 e0       	ldi	r24, 0x01	; 1
    4262:	90 e0       	ldi	r25, 0x00	; 0
    4264:	9e 83       	std	Y+6, r25	; 0x06
    4266:	8d 83       	std	Y+5, r24	; 0x05
    4268:	3f c0       	rjmp	.+126    	; 0x42e8 <main+0x6dc>
	else if (__tmp > 65535)
    426a:	6f 81       	ldd	r22, Y+7	; 0x07
    426c:	78 85       	ldd	r23, Y+8	; 0x08
    426e:	89 85       	ldd	r24, Y+9	; 0x09
    4270:	9a 85       	ldd	r25, Y+10	; 0x0a
    4272:	20 e0       	ldi	r18, 0x00	; 0
    4274:	3f ef       	ldi	r19, 0xFF	; 255
    4276:	4f e7       	ldi	r20, 0x7F	; 127
    4278:	57 e4       	ldi	r21, 0x47	; 71
    427a:	0e 94 19 03 	call	0x632	; 0x632 <__gtsf2>
    427e:	18 16       	cp	r1, r24
    4280:	4c f5       	brge	.+82     	; 0x42d4 <main+0x6c8>
	{
		//	__ticks = requested delay in 1/10 ms
		__ticks = (uint16_t) (__ms * 10.0);
    4282:	6b 85       	ldd	r22, Y+11	; 0x0b
    4284:	7c 85       	ldd	r23, Y+12	; 0x0c
    4286:	8d 85       	ldd	r24, Y+13	; 0x0d
    4288:	9e 85       	ldd	r25, Y+14	; 0x0e
    428a:	20 e0       	ldi	r18, 0x00	; 0
    428c:	30 e0       	ldi	r19, 0x00	; 0
    428e:	40 e2       	ldi	r20, 0x20	; 32
    4290:	51 e4       	ldi	r21, 0x41	; 65
    4292:	0e 94 1f 02 	call	0x43e	; 0x43e <__mulsf3>
    4296:	dc 01       	movw	r26, r24
    4298:	cb 01       	movw	r24, r22
    429a:	bc 01       	movw	r22, r24
    429c:	cd 01       	movw	r24, r26
    429e:	0e 94 49 00 	call	0x92	; 0x92 <__fixunssfsi>
    42a2:	dc 01       	movw	r26, r24
    42a4:	cb 01       	movw	r24, r22
    42a6:	9e 83       	std	Y+6, r25	; 0x06
    42a8:	8d 83       	std	Y+5, r24	; 0x05
    42aa:	0f c0       	rjmp	.+30     	; 0x42ca <main+0x6be>
    42ac:	80 e9       	ldi	r24, 0x90	; 144
    42ae:	91 e0       	ldi	r25, 0x01	; 1
    42b0:	9c 83       	std	Y+4, r25	; 0x04
    42b2:	8b 83       	std	Y+3, r24	; 0x03
    42b4:	8b 81       	ldd	r24, Y+3	; 0x03
    42b6:	9c 81       	ldd	r25, Y+4	; 0x04
    42b8:	01 97       	sbiw	r24, 0x01	; 1
    42ba:	f1 f7       	brne	.-4      	; 0x42b8 <main+0x6ac>
    42bc:	9c 83       	std	Y+4, r25	; 0x04
    42be:	8b 83       	std	Y+3, r24	; 0x03
		while(__ticks)
		{
			// wait 1/10 ms
			_delay_loop_2(((F_CPU) / 4e3) / 10);
			__ticks --;
    42c0:	8d 81       	ldd	r24, Y+5	; 0x05
    42c2:	9e 81       	ldd	r25, Y+6	; 0x06
    42c4:	01 97       	sbiw	r24, 0x01	; 1
    42c6:	9e 83       	std	Y+6, r25	; 0x06
    42c8:	8d 83       	std	Y+5, r24	; 0x05
		__ticks = 1;
	else if (__tmp > 65535)
	{
		//	__ticks = requested delay in 1/10 ms
		__ticks = (uint16_t) (__ms * 10.0);
		while(__ticks)
    42ca:	8d 81       	ldd	r24, Y+5	; 0x05
    42cc:	9e 81       	ldd	r25, Y+6	; 0x06
    42ce:	00 97       	sbiw	r24, 0x00	; 0
    42d0:	69 f7       	brne	.-38     	; 0x42ac <main+0x6a0>
    42d2:	14 c0       	rjmp	.+40     	; 0x42fc <main+0x6f0>
			__ticks --;
		}
		return;
	}
	else
		__ticks = (uint16_t)__tmp;
    42d4:	6f 81       	ldd	r22, Y+7	; 0x07
    42d6:	78 85       	ldd	r23, Y+8	; 0x08
    42d8:	89 85       	ldd	r24, Y+9	; 0x09
    42da:	9a 85       	ldd	r25, Y+10	; 0x0a
    42dc:	0e 94 49 00 	call	0x92	; 0x92 <__fixunssfsi>
    42e0:	dc 01       	movw	r26, r24
    42e2:	cb 01       	movw	r24, r22
    42e4:	9e 83       	std	Y+6, r25	; 0x06
    42e6:	8d 83       	std	Y+5, r24	; 0x05
    42e8:	8d 81       	ldd	r24, Y+5	; 0x05
    42ea:	9e 81       	ldd	r25, Y+6	; 0x06
    42ec:	9a 83       	std	Y+2, r25	; 0x02
    42ee:	89 83       	std	Y+1, r24	; 0x01
    42f0:	89 81       	ldd	r24, Y+1	; 0x01
    42f2:	9a 81       	ldd	r25, Y+2	; 0x02
    42f4:	01 97       	sbiw	r24, 0x01	; 1
    42f6:	f1 f7       	brne	.-4      	; 0x42f4 <main+0x6e8>
    42f8:	9a 83       	std	Y+2, r25	; 0x02
    42fa:	89 83       	std	Y+1, r24	; 0x01
											_delay_ms(2000);
											LCD_ClearDisplay();
    42fc:	0e 94 3e 1c 	call	0x387c	; 0x387c <LCD_ClearDisplay>
											LCD_enuSendString("ENTER_USER_NAME");
    4300:	88 ed       	ldi	r24, 0xD8	; 216
    4302:	93 e0       	ldi	r25, 0x03	; 3
    4304:	0e 94 11 18 	call	0x3022	; 0x3022 <LCD_enuSendString>
											//keyPad_Typing(Emergency.UserName,SHOWN);
											LCD_ClearDisplay();
    4308:	0e 94 3e 1c 	call	0x387c	; 0x387c <LCD_ClearDisplay>
											LCD_enuSendString("ENTER_PASSWORD");
    430c:	8e eb       	ldi	r24, 0xBE	; 190
    430e:	93 e0       	ldi	r25, 0x03	; 3
    4310:	0e 94 11 18 	call	0x3022	; 0x3022 <LCD_enuSendString>
											//keyPad_Typing(Emergency.PassWord,STAR);
											//search algorithm
											Keypad_enuGetPressedKey(&Key_Check);
    4314:	ce 01       	movw	r24, r28
    4316:	47 96       	adiw	r24, 0x17	; 23
    4318:	0e 94 01 14 	call	0x2802	; 0x2802 <Keypad_enuGetPressedKey>
											if(Key_Check==2)
    431c:	8f 89       	ldd	r24, Y+23	; 0x17
    431e:	82 30       	cpi	r24, 0x02	; 2
    4320:	c1 f0       	breq	.+48     	; 0x4352 <main+0x746>
											{

												break;
											}
											else if(Key_Check==3)
    4322:	8f 89       	ldd	r24, Y+23	; 0x17
    4324:	83 30       	cpi	r24, 0x03	; 3
    4326:	89 f4       	brne	.+34     	; 0x434a <main+0x73e>
											{
												Trial_Number++;
    4328:	8a 89       	ldd	r24, Y+18	; 0x12
    432a:	8f 5f       	subi	r24, 0xFF	; 255
    432c:	8a 8b       	std	Y+18, r24	; 0x12
												Data=1;
    432e:	81 e0       	ldi	r24, 0x01	; 1
    4330:	8e 8b       	std	Y+22, r24	; 0x16
												if(Trial_Number==3)
    4332:	8a 89       	ldd	r24, Y+18	; 0x12
    4334:	83 30       	cpi	r24, 0x03	; 3
    4336:	49 f4       	brne	.+18     	; 0x434a <main+0x73e>
												{
													while(1)
													{
														LCD_ClearDisplay();
    4338:	0e 94 3e 1c 	call	0x387c	; 0x387c <LCD_ClearDisplay>
														LCD_enuSendString("ERORR");
    433c:	88 ee       	ldi	r24, 0xE8	; 232
    433e:	93 e0       	ldi	r25, 0x03	; 3
    4340:	0e 94 11 18 	call	0x3022	; 0x3022 <LCD_enuSendString>
														buzzer_vON();
    4344:	0e 94 dd 1c 	call	0x39ba	; 0x39ba <buzzer_vON>
    4348:	f7 cf       	rjmp	.-18     	; 0x4338 <main+0x72c>
												}
											else;
											}
											else;

								}while(Data==1);
    434a:	8e 89       	ldd	r24, Y+22	; 0x16
    434c:	81 30       	cpi	r24, 0x01	; 1
    434e:	09 f4       	brne	.+2      	; 0x4352 <main+0x746>
    4350:	5d cf       	rjmp	.-326    	; 0x420c <main+0x600>
							}

			             }while(Data==2);
    4352:	8e 89       	ldd	r24, Y+22	; 0x16
    4354:	82 30       	cpi	r24, 0x02	; 2
    4356:	09 f4       	brne	.+2      	; 0x435a <main+0x74e>
    4358:	49 cf       	rjmp	.-366    	; 0x41ec <main+0x5e0>
			   LCD_enuSendString("1)LIGHT ON  ");
    435a:	8e ee       	ldi	r24, 0xEE	; 238
    435c:	93 e0       	ldi	r25, 0x03	; 3
    435e:	0e 94 11 18 	call	0x3022	; 0x3022 <LCD_enuSendString>
			   LCD_enuSendString("2)LIGHT OFF");
    4362:	8b ef       	ldi	r24, 0xFB	; 251
    4364:	93 e0       	ldi	r25, 0x03	; 3
    4366:	0e 94 11 18 	call	0x3022	; 0x3022 <LCD_enuSendString>
			   LCD_enuSendString("3) END");
    436a:	87 e0       	ldi	r24, 0x07	; 7
    436c:	94 e0       	ldi	r25, 0x04	; 4
    436e:	0e 94 11 18 	call	0x3022	; 0x3022 <LCD_enuSendString>
			   Keypad_enuGetPressedKey(&Key_Check);
    4372:	ce 01       	movw	r24, r28
    4374:	47 96       	adiw	r24, 0x17	; 23
    4376:	0e 94 01 14 	call	0x2802	; 0x2802 <Keypad_enuGetPressedKey>
			   if(Key_Check ==1)
    437a:	8f 89       	ldd	r24, Y+23	; 0x17
    437c:	81 30       	cpi	r24, 0x01	; 1
    437e:	29 f4       	brne	.+10     	; 0x438a <main+0x77e>
			   {
				   leds_vON();
    4380:	0e 94 6b 1c 	call	0x38d6	; 0x38d6 <leds_vON>
				   Data=3;
    4384:	83 e0       	ldi	r24, 0x03	; 3
    4386:	8e 8b       	std	Y+22, r24	; 0x16
    4388:	0c c0       	rjmp	.+24     	; 0x43a2 <main+0x796>
			   }
			   else if (Key_Check==2)
    438a:	8f 89       	ldd	r24, Y+23	; 0x17
    438c:	82 30       	cpi	r24, 0x02	; 2
    438e:	29 f4       	brne	.+10     	; 0x439a <main+0x78e>
			   {
				   leds_vOFF();
    4390:	0e 94 a4 1c 	call	0x3948	; 0x3948 <leds_vOFF>
				   Data=3;
    4394:	83 e0       	ldi	r24, 0x03	; 3
    4396:	8e 8b       	std	Y+22, r24	; 0x16
    4398:	04 c0       	rjmp	.+8      	; 0x43a2 <main+0x796>
			   }
			   else if (Key_Check==3)
    439a:	8f 89       	ldd	r24, Y+23	; 0x17
    439c:	83 30       	cpi	r24, 0x03	; 3
    439e:	09 f4       	brne	.+2      	; 0x43a2 <main+0x796>
    43a0:	48 cc       	rjmp	.-1904   	; 0x3c32 <main+0x26>
			   {
				   break;
			   }
			}while(Data==3);
    43a2:	8e 89       	ldd	r24, Y+22	; 0x16
    43a4:	83 30       	cpi	r24, 0x03	; 3
    43a6:	09 f4       	brne	.+2      	; 0x43aa <main+0x79e>
    43a8:	21 cf       	rjmp	.-446    	; 0x41ec <main+0x5e0>
    43aa:	43 cc       	rjmp	.-1914   	; 0x3c32 <main+0x26>

000043ac <Peripherals_Init>:

/*************************************************************************************************************************************/
/*************************************************************************************************************************************/
/*************************************************************************************************************************************/
void Peripherals_Init()
{
    43ac:	df 93       	push	r29
    43ae:	cf 93       	push	r28
    43b0:	cd b7       	in	r28, 0x3d	; 61
    43b2:	de b7       	in	r29, 0x3e	; 62
	 Call_Back_Fun(Program_Check_Fun);
    43b4:	81 ef       	ldi	r24, 0xF1	; 241
    43b6:	91 e2       	ldi	r25, 0x21	; 33
    43b8:	0e 94 88 0c 	call	0x1910	; 0x1910 <Call_Back_Fun>
	 AC_Init();
    43bc:	0e 94 ff 0f 	call	0x1ffe	; 0x1ffe <AC_Init>
	 Door_Ini();
    43c0:	0e 94 25 10 	call	0x204a	; 0x204a <Door_Ini>
	 Temp_Sens_Init();
    43c4:	0e 94 c5 1d 	call	0x3b8a	; 0x3b8a <Temp_Sens_Init>
     LCD_enuInit();
    43c8:	0e 94 c7 15 	call	0x2b8e	; 0x2b8e <LCD_enuInit>
	 Keypad_enuInit();
    43cc:	0e 94 a6 13 	call	0x274c	; 0x274c <Keypad_enuInit>
	 Remote_Init();
    43d0:	0e 94 ff 1c 	call	0x39fe	; 0x39fe <Remote_Init>
	 GIE_Enable();
    43d4:	0e 94 a5 0a 	call	0x154a	; 0x154a <GIE_Enable>
	 EEPROM_enuInit();
    43d8:	0e 94 41 10 	call	0x2082	; 0x2082 <EEPROM_enuInit>
}
    43dc:	cf 91       	pop	r28
    43de:	df 91       	pop	r29
    43e0:	08 95       	ret

000043e2 <Program_Check_Fun>:
void Program_Check_Fun()
{
    43e2:	df 93       	push	r29
    43e4:	cf 93       	push	r28
    43e6:	cd b7       	in	r28, 0x3d	; 61
    43e8:	de b7       	in	r29, 0x3e	; 62
	Program_Check=1;
    43ea:	81 e0       	ldi	r24, 0x01	; 1
    43ec:	80 93 30 04 	sts	0x0430, r24
	USART_Recive_Char();
    43f0:	0e 94 69 0f 	call	0x1ed2	; 0x1ed2 <USART_Recive_Char>
    USART_RX_ID();
    43f4:	0e 94 25 0f 	call	0x1e4a	; 0x1e4a <USART_RX_ID>
}
    43f8:	cf 91       	pop	r28
    43fa:	df 91       	pop	r29
    43fc:	08 95       	ret

000043fe <__prologue_saves__>:
    43fe:	2f 92       	push	r2
    4400:	3f 92       	push	r3
    4402:	4f 92       	push	r4
    4404:	5f 92       	push	r5
    4406:	6f 92       	push	r6
    4408:	7f 92       	push	r7
    440a:	8f 92       	push	r8
    440c:	9f 92       	push	r9
    440e:	af 92       	push	r10
    4410:	bf 92       	push	r11
    4412:	cf 92       	push	r12
    4414:	df 92       	push	r13
    4416:	ef 92       	push	r14
    4418:	ff 92       	push	r15
    441a:	0f 93       	push	r16
    441c:	1f 93       	push	r17
    441e:	cf 93       	push	r28
    4420:	df 93       	push	r29
    4422:	cd b7       	in	r28, 0x3d	; 61
    4424:	de b7       	in	r29, 0x3e	; 62
    4426:	ca 1b       	sub	r28, r26
    4428:	db 0b       	sbc	r29, r27
    442a:	0f b6       	in	r0, 0x3f	; 63
    442c:	f8 94       	cli
    442e:	de bf       	out	0x3e, r29	; 62
    4430:	0f be       	out	0x3f, r0	; 63
    4432:	cd bf       	out	0x3d, r28	; 61
    4434:	09 94       	ijmp

00004436 <__epilogue_restores__>:
    4436:	2a 88       	ldd	r2, Y+18	; 0x12
    4438:	39 88       	ldd	r3, Y+17	; 0x11
    443a:	48 88       	ldd	r4, Y+16	; 0x10
    443c:	5f 84       	ldd	r5, Y+15	; 0x0f
    443e:	6e 84       	ldd	r6, Y+14	; 0x0e
    4440:	7d 84       	ldd	r7, Y+13	; 0x0d
    4442:	8c 84       	ldd	r8, Y+12	; 0x0c
    4444:	9b 84       	ldd	r9, Y+11	; 0x0b
    4446:	aa 84       	ldd	r10, Y+10	; 0x0a
    4448:	b9 84       	ldd	r11, Y+9	; 0x09
    444a:	c8 84       	ldd	r12, Y+8	; 0x08
    444c:	df 80       	ldd	r13, Y+7	; 0x07
    444e:	ee 80       	ldd	r14, Y+6	; 0x06
    4450:	fd 80       	ldd	r15, Y+5	; 0x05
    4452:	0c 81       	ldd	r16, Y+4	; 0x04
    4454:	1b 81       	ldd	r17, Y+3	; 0x03
    4456:	aa 81       	ldd	r26, Y+2	; 0x02
    4458:	b9 81       	ldd	r27, Y+1	; 0x01
    445a:	ce 0f       	add	r28, r30
    445c:	d1 1d       	adc	r29, r1
    445e:	0f b6       	in	r0, 0x3f	; 63
    4460:	f8 94       	cli
    4462:	de bf       	out	0x3e, r29	; 62
    4464:	0f be       	out	0x3f, r0	; 63
    4466:	cd bf       	out	0x3d, r28	; 61
    4468:	ed 01       	movw	r28, r26
    446a:	08 95       	ret

0000446c <strcmp>:
    446c:	fb 01       	movw	r30, r22
    446e:	dc 01       	movw	r26, r24
    4470:	8d 91       	ld	r24, X+
    4472:	01 90       	ld	r0, Z+
    4474:	80 19       	sub	r24, r0
    4476:	01 10       	cpse	r0, r1
    4478:	d9 f3       	breq	.-10     	; 0x4470 <strcmp+0x4>
    447a:	99 0b       	sbc	r25, r25
    447c:	08 95       	ret

0000447e <_exit>:
    447e:	f8 94       	cli

00004480 <__stop_program>:
    4480:	ff cf       	rjmp	.-2      	; 0x4480 <__stop_program>
